(dp0
(I979
I1608
tp1
(I979
I118
I1608
tp2
s(I1759
I139
tp3
(I727
I139
I1759
tp4
s(I2084
I231
tp5
(I232
I231
I2084
tp6
s(I55
I2001
tp7
(I55
I2001
Ntp8
s(I1892
I1893
tp9
(I227
I224
I1881
tp10
s(I116
I1471
tp11
(I116
I1471
Ntp12
s(I2113
I187
tp13
(I1673
I187
I2111
tp14
s(I43
I444
tp15
(I43
I444
Ntp16
s(I238
I2296
tp17
(I238
I2296
Ntp18
s(I1648
I193
tp19
(I734
I193
I1648
tp20
s(I908
I292
tp21
(I222
I221
I1013
tp22
s(I802
I803
tp23
(I802
I804
I803
tp24
s(I1759
I727
tp25
(I139
I727
I1759
tp26
s(I1947
I1631
tp27
(I1627
I1631
I1628
tp28
s(I57
I163
tp29
(I58
I162
I694
tp30
s(I147
I724
tp31
(I147
I724
Ntp32
s(I1130
I1980
tp33
(I1130
I1980
Ntp34
s(I2470
I2469
tp35
(I2123
I2466
I2470
tp36
s(I4
I1536
tp37
(I4
I1536
Ntp38
s(I1696
I1697
tp39
(I1696
I1697
Ntp40
s(I590
I2556
tp41
(I590
I841
I2556
tp42
s(I1613
I1612
tp43
(I54
I984
I1617
tp44
s(I1618
I2124
tp45
(I1618
I156
I2124
tp46
s(I2091
I2092
tp47
(I1255
I2093
I2088
tp48
s(I199
I1593
tp49
(I199
I1593
Ntp50
s(I793
I794
tp51
(I793
I795
I794
tp52
s(I436
I2378
tp53
(I436
I212
I2378
tp54
s(I903
I1189
tp55
(I903
I155
I1189
tp56
s(I1914
I1913
tp57
(I1458
I223
I1920
tp58
s(I193
I263
tp59
(I193
I263
Ntp60
s(I227
I2119
tp61
(I227
I2119
Ntp62
s(I931
I932
tp63
(I929
I939
I930
tp64
s(I213
I1773
tp65
(I213
I1773
Ntp66
s(I219
I1014
tp67
(I219
I1014
Ntp68
s(I143
I945
tp69
(I143
I945
Ntp70
s(I384
I385
tp71
(I384
I386
I385
tp72
s(I2051
I2050
tp73
(I848
I849
I2051
tp74
s(I22
I343
tp75
(I22
I343
Ntp76
s(I238
I2064
tp77
(I238
I1271
I2064
tp78
s(I1382
I989
tp79
(I1379
I989
I1380
tp80
s(I564
I565
tp81
(I563
I566
I564
tp82
s(I541
I542
tp83
(I540
I80
I541
tp84
s(I238
I2375
tp85
(I238
I2375
Ntp86
s(I33
I526
tp87
(I33
I1426
I526
tp88
s(I1797
I1869
tp89
(I1797
I1872
I1869
tp90
s(I1479
I1689
tp91
(I1479
I1689
Ntp92
s(I754
I755
tp93
(I754
I744
I755
tp94
s(I2265
I2380
tp95
(I236
I2380
I2448
tp96
s(I756
I755
tp97
(I744
I754
I758
tp98
s(I1966
I2164
tp99
(I1966
I384
I2164
tp100
s(I1393
I789
tp101
(I788
I789
I1393
tp102
s(I1725
I2330
tp103
(I1725
I2330
Ntp104
s(I1760
I55
tp105
(I1264
I55
I1600
tp106
s(I414
I1158
tp107
(I414
I1158
Ntp108
s(I801
I802
tp109
(I801
I802
Ntp110
s(I2181
I912
tp111
(I910
I912
I2177
tp112
s(I806
I1222
tp113
(I806
I1222
Ntp114
s(I1645
I1646
tp115
(I183
I1647
I1645
tp116
s(I1157
I2289
tp117
(I1157
I236
I2289
tp118
s(I790
I1942
tp119
(I790
I1942
Ntp120
s(I2099
I238
tp121
(I1271
I238
I2099
tp122
s(I62
I1366
tp123
(I62
I1160
I1366
tp124
s(I2549
I2550
tp125
(I108
I109
I2549
tp126
s(I415
I682
tp127
(I415
I682
Ntp128
s(I1294
I1293
tp129
(I351
I159
I1294
tp130
s(I460
I2173
tp131
(I460
I2173
Ntp132
s(I530
I531
tp133
(I262
I532
I2207
tp134
s(I667
I1257
tp135
(I667
I445
I1257
tp136
s(I2182
I847
tp137
(I843
I847
I2387
tp138
s(I421
I1085
tp139
(I421
I423
I1085
tp140
s(I946
I1120
tp141
(I946
I1120
Ntp142
s(I1883
I1882
tp143
(I224
I227
I1896
tp144
s(I1575
I501
tp145
(I143
I501
I1575
tp146
s(I1852
I1041
tp147
(I764
I998
I1852
tp148
s(I729
I689
tp149
(I584
I689
I688
tp150
s(I1879
I2461
tp151
(I463
I662
I1879
tp152
s(I93
I810
tp153
(I93
I810
Ntp154
s(I1664
I1287
tp155
(I1286
I1287
I1762
tp156
s(I707
I1756
tp157
(I707
I104
I1756
tp158
s(I2463
I663
tp159
(I445
I2462
I2463
tp160
s(I1189
I155
tp161
g56
s(I816
I2058
tp162
(I816
I817
I2058
tp163
s(I1058
I1710
tp164
(I1058
I1710
Ntp165
s(I2126
I2538
tp166
(I2126
I2539
I2538
tp167
s(I780
I781
tp168
(I778
I781
I779
tp169
s(I1620
I2327
tp170
(I1620
I241
I2327
tp171
s(I367
I968
tp172
(I367
I964
I968
tp173
s(I1879
I463
tp174
(I662
I463
I2461
tp175
s(I2456
I2455
tp176
(I69
I71
I2459
tp177
s(I963
I892
tp178
(I962
I892
I1226
tp179
s(I797
I1636
tp180
(I797
I1636
Ntp181
s(I958
I959
tp182
(I463
I959
I957
tp183
s(I432
I1228
tp184
(I432
I1228
Ntp185
s(I2384
I2385
tp186
(I2383
I2385
I2384
tp187
s(I2019
I2020
tp188
(I2019
I1186
I2020
tp189
s(I688
I584
tp190
(I689
I584
I729
tp191
s(I484
I763
tp192
(I484
I763
Ntp193
s(I11
I2074
tp194
(I11
I2074
Ntp195
s(I1214
I1215
tp196
(I1214
I1215
Ntp197
s(I1
I137
tp198
(I1
I137
Ntp199
s(I655
I2411
tp200
(I655
I2411
Ntp201
s(I201
I2552
tp202
(I109
I110
I2551
tp203
s(I202
I2550
tp204
(I109
I108
I202
tp205
s(I2244
I1757
tp206
(I183
I813
I2416
tp207
s(I2448
I235
tp208
g96
s(I1999
I194
tp209
(I613
I194
I2231
tp210
s(I37
I1419
tp211
(I37
I1419
Ntp212
s(I346
I1184
tp213
(I346
I347
I1184
tp214
s(I679
I678
tp215
(I320
I676
I2317
tp216
s(I1878
I367
tp217
(I1273
I367
I1878
tp218
s(I593
I1185
tp219
(I593
I1185
Ntp220
s(I2368
I1639
tp221
(I1436
I1622
I1637
tp222
s(I137
I554
tp223
(I137
I554
Ntp224
s(I332
I333
tp225
(I331
I333
I1376
tp226
s(I1924
I1923
tp227
(I1195
I1458
I1926
tp228
s(I31
I1044
tp229
(I31
I28
I1044
tp230
s(I1499
I253
tp231
(I252
I253
I1499
tp232
s(I1255
I2088
tp233
g48
s(I916
I942
tp234
(I916
I604
I942
tp235
s(I219
I2173
tp236
(I219
I2173
Ntp237
s(I974
I1361
tp238
(I974
I1361
Ntp239
s(I229
I1215
tp240
(I229
I1215
Ntp241
s(I1098
I1099
tp242
(I1098
I1099
Ntp243
s(I1588
I1589
tp244
(I1588
I1589
Ntp245
s(I263
I1688
tp246
(I263
I1104
I1688
tp247
s(I1597
I404
tp248
(I1227
I404
I1597
tp249
s(I2431
I1113
tp250
(I216
I1113
I2354
tp251
s(I1999
I480
tp252
(I194
I613
I1999
tp253
s(I39
I1710
tp254
(I39
I1710
Ntp255
s(I883
I453
tp256
(I454
I453
I883
tp257
s(I223
I571
tp258
(I223
I571
Ntp259
s(I2022
I1186
tp260
(I596
I1186
I2023
tp261
s(I1089
I2118
tp262
(I1089
I2118
Ntp263
s(I1664
I1767
tp264
(I1287
I1286
I1664
tp265
s(I1594
I199
tp266
(I112
I199
I1594
tp267
s(I805
I138
tp268
(I804
I138
I805
tp269
s(I2351
I2350
tp270
(I512
I1196
I2352
tp271
s(I1887
I1888
tp272
g10
s(I1652
I1326
tp273
(I1650
I1326
I1651
tp274
s(I2083
I2158
tp275
(I2083
I2158
Ntp276
s(I709
I1253
tp277
(I709
I223
I1253
tp278
s(I167
I533
tp279
(I167
I533
Ntp280
s(I1939
I1940
tp281
(I1939
I1941
I1940
tp282
s(I2112
I2111
tp283
(I187
I1673
I2113
tp284
s(I416
I2168
tp285
(I416
I2168
Ntp286
s(I2155
I841
tp287
(I2153
I841
I2154
tp288
s(I899
I1874
tp289
(I899
I1874
Ntp290
s(I2326
I1618
tp291
(I1620
I1618
I2326
tp292
s(I1381
I1382
tp293
g80
s(I896
I2524
tp294
(I896
I2126
I2524
tp295
s(I559
I560
tp296
(I559
I560
Ntp297
s(I1458
I1921
tp298
(I1458
I1195
I1921
tp299
s(I1312
I2076
tp300
(I1312
I2076
Ntp301
s(I1923
I1922
tp302
g228
s(I1061
I1727
tp303
(I1061
I1727
Ntp304
s(I808
I877
tp305
(I808
I807
I877
tp306
s(I644
I645
tp307
(I643
I645
I644
tp308
s(I189
I1364
tp309
(I189
I188
I1364
tp310
s(I2283
I789
tp311
(I2068
I789
I2283
tp312
s(I889
I236
tp313
g118
s(I1239
I681
tp314
(I978
I681
I1239
tp315
s(I1001
I1002
tp316
(I1001
I1003
I1002
tp317
s(I469
I1663
tp318
(I469
I475
I1663
tp319
s(I1866
I1284
tp320
(I1000
I1286
I1766
tp321
s(I986
I987
tp322
(I984
I988
I985
tp323
s(I113
I112
tp324
(I46
I112
I113
tp325
s(I811
I812
tp326
(I810
I812
I811
tp327
s(I2193
I2194
tp328
(I437
I438
I2192
tp329
s(I2373
I1316
tp330
(I1317
I1316
I2373
tp331
s(I849
I2043
tp332
(I849
I848
I2043
tp333
s(I707
I1484
tp334
(I707
I1484
Ntp335
s(I1828
I2483
tp336
(I1828
I2483
Ntp337
s(I203
I719
tp338
(I73
I205
I203
tp339
s(I821
I822
tp340
(I817
I1827
I818
tp341
s(I848
I2051
tp342
g74
s(I221
I970
tp343
(I221
I668
I970
tp344
s(I1098
I2236
tp345
(I1098
I2236
Ntp346
s(I1820
I2114
tp347
(I1820
I624
I2114
tp348
s(I2100
I422
tp349
(I421
I423
I2100
tp350
s(I836
I835
tp351
(I590
I835
I838
tp352
s(I2134
I2332
tp353
(I1198
I223
I2335
tp354
s(I2038
I2039
tp355
(I2038
I849
I2039
tp356
s(I2383
I2384
tp357
g187
s(I459
I359
tp358
(I275
I458
I459
tp359
s(I2170
I1269
tp360
(I1268
I1269
I2170
tp361
s(I1846
I1845
tp362
(I130
I1844
I1850
tp363
s(I650
I651
tp364
(I650
I651
Ntp365
s(I255
I962
tp366
(I255
I962
Ntp367
s(I1081
I2116
tp368
(I953
I114
I1084
tp369
s(I106
I2122
tp370
(I106
I708
I2122
tp371
s(I155
I1295
tp372
(I155
I1295
Ntp373
s(I655
I885
tp374
(I655
I885
Ntp375
s(I2045
I2044
tp376
g74
s(I759
I760
tp377
(I759
I760
Ntp378
s(I2018
I2019
tp379
(I1864
I2019
I2017
tp380
s(I1640
I1641
tp381
(I413
I1264
I1640
tp382
s(I200
I1054
tp383
(I110
I109
I200
tp384
s(I1019
I1058
tp385
(I1019
I1058
Ntp386
s(I911
I2181
tp387
g112
s(I543
I544
tp388
g84
s(I545
I544
tp389
(I80
I540
I1200
tp390
s(I167
I431
tp391
(I167
I431
Ntp392
s(I1535
I417
tp393
(I266
I416
I2530
tp394
s(I641
I642
tp395
(I640
I642
I2511
tp396
s(I663
I2462
tp397
g160
s(I1667
I284
tp398
(I106
I283
I1667
tp399
s(I280
I1980
tp400
(I280
I1980
Ntp401
s(I2470
I2123
tp402
(I2466
I2123
I2467
tp403
s(I927
I928
tp404
(I927
I929
I928
tp405
s(I2246
I2567
tp406
(I2246
I2567
Ntp407
s(I2554
I2555
tp408
(I2428
I2555
I2554
tp409
s(I748
I18
tp410
(I6
I17
I748
tp411
s(I345
I960
tp412
(I345
I960
Ntp413
s(I2231
I480
tp414
g210
s(I1769
I1649
tp415
(I720
I1649
I721
tp416
s(I514
I515
tp417
(I514
I515
Ntp418
s(I1180
I620
tp419
(I1091
I620
I1180
tp420
s(I2498
I2499
tp421
(I333
I433
I2494
tp422
s(I79
I335
tp423
(I79
I78
I335
tp424
s(I178
I2561
tp425
(I178
I179
I2561
tp426
s(I388
I389
tp427
(I268
I271
I388
tp428
s(I1921
I1922
tp429
g299
s(I1707
I1708
tp430
(I1706
I1708
I1707
tp431
s(I103
I768
tp432
(I103
I768
Ntp433
s(I1468
I1469
tp434
(I648
I1471
I1467
tp435
s(I268
I537
tp436
(I268
I433
I537
tp437
s(I1967
I384
tp438
(I1966
I384
I1967
tp439
s(I2485
I2484
tp440
(I1828
I114
I2485
tp441
s(I1498
I1576
tp442
(I1498
I1576
Ntp443
s(I1774
I65
tp444
(I68
I65
I1792
tp445
s(I690
I691
tp446
(I689
I691
I690
tp447
s(I1461
I133
tp448
(I134
I133
I1461
tp449
s(I2121
I2393
tp450
(I2121
I2393
Ntp451
s(I767
I1753
tp452
(I767
I768
I1753
tp453
s(I19
I20
tp454
(I19
I20
Ntp455
s(I1055
I2442
tp456
(I1055
I2442
Ntp457
s(I2256
I2257
tp458
(I2254
I2257
I2255
tp459
s(I1525
I1526
tp460
(I1525
I1526
Ntp461
s(I367
I1878
tp462
(I367
I1273
I1878
tp463
s(I124
I2174
tp464
(I124
I910
I2174
tp465
s(I640
I2511
tp466
g396
s(I1045
I1046
tp467
g230
s(I57
I694
tp468
(I162
I58
I364
tp469
s(I2341
I1196
tp470
(I1198
I1196
I2336
tp471
s(I2271
I1841
tp472
(I1840
I624
I2269
tp473
s(I185
I186
tp474
(I184
I186
I185
tp475
s(I1940
I1941
tp476
g282
s(I2387
I844
tp477
g138
s(I207
I295
tp478
(I207
I206
I295
tp479
s(I1692
I1693
tp480
(I1691
I1693
I1692
tp481
s(I1792
I68
tp482
(I65
I68
I1774
tp483
s(I2140
I2189
tp484
(I1900
I842
I2140
tp485
s(I1702
I1701
tp486
(I520
I1699
I1702
tp487
s(I251
I252
tp488
(I251
I252
Ntp489
s(I1347
I1580
tp490
(I257
I1579
I1347
tp491
s(I2042
I849
tp492
g356
s(I189
I190
tp493
(I189
I190
Ntp494
s(I1479
I2075
tp495
(I1479
I2075
Ntp496
s(I1353
I1352
tp497
(I1034
I1352
I1353
tp498
s(I139
I969
tp499
(I139
I969
Ntp500
s(I500
I87
tp501
(I86
I87
I1178
tp502
s(I107
I108
tp503
(I107
I108
Ntp504
s(I1724
I479
tp505
(I390
I479
I1724
tp506
s(I606
I607
tp507
(I604
I130
I914
tp508
s(I1711
I2355
tp509
(I939
I216
I2357
tp510
s(I1209
I1408
tp511
(I1209
I1408
Ntp512
s(I2365
I1337
tp513
(I1725
I1337
I2365
tp514
s(I1168
I1005
tp515
(I1007
I1005
I1169
tp516
s(I1120
I1121
tp517
(I1120
I1005
I1121
tp518
s(I240
I2401
tp519
(I240
I2401
Ntp520
s(I985
I1643
tp521
g323
s(I1469
I1470
tp522
g435
s(I1926
I1195
tp523
g299
s(I1267
I1268
tp524
(I160
I1268
I1267
tp525
s(I2259
I100
tp526
(I1875
I100
I2258
tp527
s(I2033
I2034
tp528
(I408
I2038
I2030
tp529
s(I28
I258
tp530
(I28
I258
Ntp531
s(I515
I1137
tp532
(I515
I1146
I1137
tp533
s(I1691
I1692
tp534
g481
s(I2006
I2005
tp535
(I1387
I1386
I2011
tp536
s(I875
I876
tp537
(I875
I876
Ntp538
s(I1889
I226
tp539
g144
s(I1330
I950
tp540
(I640
I953
I1749
tp541
s(I1700
I1699
tp542
g487
s(I767
I1106
tp543
(I767
I1107
I1106
tp544
s(I1061
I1062
tp545
(I1061
I1063
I1062
tp546
s(I512
I1358
tp547
(I512
I1358
Ntp548
s(I2511
I641
tp549
g396
s(I2217
I2218
tp550
(I1020
I1934
I2217
tp551
s(I1254
I507
tp552
(I505
I507
I506
tp553
s(I439
I1557
tp554
(I438
I2523
I1558
tp555
s(I1223
I1296
tp556
(I1223
I1296
Ntp557
s(I1744
I2394
tp558
(I1143
I1145
I1144
tp559
s(I2227
I813
tp560
(I816
I813
I2059
tp561
s(I173
I1150
tp562
(I173
I1150
Ntp563
s(I1207
I1208
tp564
(I652
I1313
I1205
tp565
s(I93
I1509
tp566
(I93
I852
I1509
tp567
s(I2315
I69
tp568
(I68
I69
I2315
tp569
s(I378
I1282
tp570
(I378
I1174
I1282
tp571
s(I144
I1672
tp572
(I144
I1672
Ntp573
s(I34
I1131
tp574
(I34
I1131
Ntp575
s(I193
I2075
tp576
(I193
I2075
Ntp577
s(I1819
I135
tp578
(I1817
I135
I1818
tp579
s(I352
I959
tp580
(I352
I959
Ntp581
s(I1805
I733
tp582
(I377
I10
I1804
tp583
s(I11
I1551
tp584
(I11
I1015
I1551
tp585
s(I686
I457
tp586
(I456
I338
I686
tp587
s(I192
I424
tp588
(I192
I424
Ntp589
s(I118
I1183
tp590
(I118
I1183
Ntp591
s(I1192
I1263
tp592
(I1192
I173
I1263
tp593
s(I1682
I1647
tp594
(I1680
I1647
I1681
tp595
s(I86
I1539
tp596
(I86
I193
I1539
tp597
s(I2405
I2565
tp598
(I2405
I1703
I2565
tp599
s(I2025
I2024
tp600
(I55
I596
I2026
tp601
s(I761
I275
tp602
(I760
I275
I761
tp603
s(I410
I1564
tp604
(I252
I411
I1568
tp605
s(I1508
I1507
tp606
(I1195
I1196
I1927
tp607
s(I1000
I1001
tp608
(I1000
I1001
Ntp609
s(I1743
I1830
tp610
(I1743
I465
I1830
tp611
s(I213
I1071
tp612
(I213
I1071
Ntp613
s(I1812
I2214
tp614
(I1812
I333
I2214
tp615
s(I1750
I2077
tp616
(I1750
I2078
I2077
tp617
s(I551
I401
tp618
(I402
I88
I551
tp619
s(I2415
I2414
tp620
(I1603
I2414
I2415
tp621
s(I1121
I1120
tp622
(I1005
I1120
I1121
tp623
s(I1806
I733
tp624
(I10
I377
I1807
tp625
s(I1504
I1505
tp626
g271
s(I1387
I1388
tp627
(I1387
I1388
Ntp628
s(I1845
I1844
tp629
g363
s(I227
I1881
tp630
g10
s(I2261
I2106
tp631
(I813
I183
I2262
tp632
s(I1388
I2208
tp633
(I1388
I2014
I2208
tp634
s(I1548
I1549
tp635
(I1545
I681
I1546
tp636
s(I845
I2186
tp637
(I847
I843
I2182
tp638
s(I1178
I86
tp639
(I87
I86
I500
tp640
s(I1836
I2086
tp641
(I1836
I2087
I2086
tp642
s(I479
I753
tp643
(I479
I194
I753
tp644
s(I139
I616
tp645
(I139
I616
Ntp646
s(I1881
I1882
tp647
g10
s(I1666
I2331
tp648
(I1666
I43
I2331
tp649
s(I874
I891
tp650
(I874
I891
Ntp651
s(I1124
I1259
tp652
(I1124
I1259
Ntp653
s(I2248
I1533
tp654
(I1534
I519
I2248
tp655
s(I103
I1814
tp656
(I103
I1814
Ntp657
s(I473
I854
tp658
(I473
I343
I854
tp659
s(I1910
I1909
tp660
g58
s(I1232
I1233
tp661
(I1231
I1235
I1232
tp662
s(I2562
I1129
tp663
(I192
I1127
I2562
tp664
s(I701
I1354
tp665
(I33
I1445
I701
tp666
s(I1044
I31
tp667
(I28
I31
I1046
tp668
s(I1448
I864
tp669
(I997
I864
I1448
tp670
s(I915
I942
tp671
(I604
I916
I1772
tp672
s(I1862
I320
tp673
(I322
I320
I1502
tp674
s(I2234
I1191
tp675
(I173
I94
I2234
tp676
s(I1128
I1129
tp677
(I1127
I192
I1128
tp678
s(I2515
I2516
tp679
(I1697
I1636
I2515
tp680
s(I225
I1894
tp681
g144
s(I1756
I707
tp682
(I104
I707
I1756
tp683
s(I648
I1031
tp684
(I648
I1031
Ntp685
s(I619
I1295
tp686
(I619
I1295
Ntp687
s(I962
I1541
tp688
(I962
I961
I1541
tp689
s(I1835
I2521
tp690
(I1835
I2522
I2521
tp691
s(I983
I984
tp692
(I979
I984
I980
tp693
s(I1724
I390
tp694
(I479
I390
I1724
tp695
s(I968
I367
tp696
(I964
I367
I965
tp697
s(I1351
I2377
tp698
(I1351
I2377
Ntp699
s(I139
I1024
tp700
(I139
I169
I1024
tp701
s(I1836
I2428
tp702
(I1836
I2428
Ntp703
s(I1103
I1240
tp704
(I1104
I1964
I1117
tp705
s(I4
I518
tp706
(I4
I5
I518
tp707
s(I741
I1328
tp708
(I741
I1328
Ntp709
s(I1
I2167
tp710
(I1
I2167
Ntp711
s(I1452
I1517
tp712
(I1452
I121
I1517
tp713
s(I2505
I1638
tp714
(I234
I1638
I2505
tp715
s(I2245
I1592
tp716
(I1590
I1592
I2245
tp717
s(I984
I985
tp718
g323
s(I470
I612
tp719
(I470
I612
Ntp720
s(I92
I1563
tp721
(I92
I91
I1563
tp722
s(I153
I1538
tp723
(I153
I1538
Ntp724
s(I1202
I1203
tp725
(I1201
I652
I1202
tp726
s(I1663
I469
tp727
(I475
I469
I1663
tp728
s(I2491
I2492
tp729
(I101
I2473
I2490
tp730
s(I1703
I2359
tp731
(I1703
I2359
Ntp732
s(I191
I1802
tp733
(I191
I1802
Ntp734
s(I144
I1670
tp735
(I144
I1670
Ntp736
s(I999
I2000
tp737
(I999
I2305
I2000
tp738
s(I292
I293
tp739
g22
s(I1912
I1911
tp740
g58
s(I2441
I2440
tp741
(I2385
I2440
I2441
tp742
s(I1526
I1680
tp743
(I1526
I1680
Ntp744
s(I1907
I1908
tp745
(I223
I1458
I1903
tp746
s(I1699
I2169
tp747
(I1699
I519
I2169
tp748
s(I1618
I1619
tp749
(I1618
I1620
I1619
tp750
s(I160
I234
tp751
(I160
I234
Ntp752
s(I898
I1368
tp753
(I898
I1368
Ntp754
s(I238
I1961
tp755
(I238
I1961
Ntp756
s(I643
I1809
tp757
(I643
I642
I1809
tp758
s(I2353
I1712
tp759
(I1113
I1712
I2353
tp760
s(I666
I665
tp761
g136
s(I2059
I816
tp762
(I813
I816
I2227
tp763
s(I1557
I1556
tp764
g555
s(I2395
I1719
tp765
(I1872
I1719
I2395
tp766
s(I463
I1879
tp767
g152
s(I266
I2530
tp768
g394
s(I1262
I94
tp769
g676
s(I267
I268
tp770
(I266
I268
I1398
tp771
s(I847
I2182
tp772
g638
s(I181
I2157
tp773
(I181
I118
I2157
tp774
s(I116
I661
tp775
(I116
I661
Ntp776
s(I1931
I998
tp777
(I742
I998
I743
tp778
s(I1015
I1537
tp779
(I1015
I1016
I1537
tp780
s(I1260
I2121
tp781
(I1260
I2121
Ntp782
s(I1920
I1919
tp783
g58
s(I78
I926
tp784
(I78
I363
I926
tp785
s(I375
I1948
tp786
(I375
I245
I1948
tp787
s(I382
I1047
tp788
(I382
I1047
Ntp789
s(I1669
I1485
tp790
(I53
I1491
I1669
tp791
s(I674
I673
tp792
(I436
I668
I674
tp793
s(I1156
I237
tp794
(I1099
I237
I1763
tp795
s(I807
I1299
tp796
(I807
I1299
Ntp797
s(I1641
I1264
tp798
g382
s(I2292
I668
tp799
(I153
I668
I2291
tp800
s(I2
I3
tp801
(I2
I3
Ntp802
s(I1790
I1789
tp803
g445
s(I110
I2254
tp804
(I110
I2254
Ntp805
s(I1984
I1685
tp806
(I1586
I1685
I1984
tp807
s(I1905
I1904
tp808
g58
s(I427
I428
tp809
(I426
I428
I427
tp810
s(I67
I1786
tp811
g445
s(I1150
I1389
tp812
(I1150
I1389
Ntp813
s(I234
I1631
tp814
(I234
I1631
Ntp815
s(I142
I945
tp816
(I142
I945
Ntp817
s(I489
I891
tp818
(I489
I891
Ntp819
s(I470
I471
tp820
(I470
I471
Ntp821
s(I757
I758
tp822
g94
s(I401
I88
tp823
g619
s(I598
I1605
tp824
(I598
I1605
Ntp825
s(I279
I1460
tp826
(I278
I280
I279
tp827
s(I269
I270
tp828
g428
s(I268
I388
tp829
g428
s(I1617
I54
tp830
(I984
I54
I1612
tp831
s(I2500
I2499
tp832
(I433
I333
I2504
tp833
s(I2051
I848
tp834
g333
s(I2035
I2036
tp835
g529
s(I995
I1297
tp836
(I995
I1297
Ntp837
s(I1475
I1476
tp838
(I1401
I133
I1473
tp839
s(I2494
I333
tp840
g833
s(I444
I1454
tp841
(I444
I135
I1454
tp842
s(I101
I2142
tp843
(I101
I100
I2142
tp844
s(I2011
I2010
tp845
g536
s(I524
I1409
tp846
(I524
I1409
Ntp847
s(I1113
I2353
tp848
g760
s(I430
I581
tp849
(I430
I581
Ntp850
s(I708
I2122
tp851
(I708
I106
I2122
tp852
s(I208
I2173
tp853
(I208
I2173
Ntp854
s(I2162
I2161
tp855
(I875
I2160
I2163
tp856
s(I271
I1855
tp857
(I271
I435
I1855
tp858
s(I1196
I2341
tp859
(I1196
I1198
I2341
tp860
s(I1663
I475
tp861
g319
s(I117
I164
tp862
(I116
I164
I117
tp863
s(I2472
I2371
tp864
(I1703
I1314
I2472
tp865
s(I1515
I411
tp866
(I1091
I411
I2427
tp867
s(I1956
I515
tp868
(I1659
I515
I1956
tp869
s(I2262
I2108
tp870
g632
s(I288
I355
tp871
(I288
I354
I355
tp872
s(I2164
I1966
tp873
(I384
I1966
I2164
tp874
s(I627
I222
tp875
(I626
I222
I1172
tp876
s(I1944
I1945
tp877
(I1944
I1945
Ntp878
s(I295
I206
tp879
g479
s(I79
I685
tp880
(I79
I685
Ntp881
s(I438
I2199
tp882
(I438
I437
I2199
tp883
s(I1019
I1710
tp884
(I1019
I1710
Ntp885
s(I1420
I1421
tp886
(I37
I404
I1420
tp887
s(I468
I703
tp888
(I383
I703
I878
tp889
s(I1269
I1443
tp890
(I1269
I1443
Ntp891
s(I952
I953
tp892
g541
s(I2043
I849
tp893
g74
s(I133
I1461
tp894
(I133
I134
I1461
tp895
s(I1380
I1379
tp896
(I989
I1379
I1382
tp897
s(I744
I998
tp898
(I744
I998
Ntp899
s(I1882
I1881
tp900
g144
s(I501
I1575
tp901
(I501
I143
I1575
tp902
s(I2142
I1752
tp903
g844
s(I1046
I1045
tp904
g668
s(I932
I933
tp905
g64
s(I1765
I127
tp906
(I124
I128
I125
tp907
s(I631
I632
tp908
(I631
I632
Ntp909
s(I1006
I1168
tp910
g516
s(I1988
I1989
tp911
(I1480
I1989
I1987
tp912
s(I1332
I158
tp913
(I159
I158
I1332
tp914
s(I905
I1596
tp915
(I905
I1596
Ntp916
s(I1815
I2537
tp917
(I1815
I2537
Ntp918
s(I1545
I1546
tp919
g636
s(I488
I510
tp920
(I488
I510
Ntp921
s(I379
I1738
tp922
(I379
I1152
I1738
tp923
s(I1903
I1904
tp924
g746
s(I112
I1594
tp925
g267
s(I475
I1662
tp926
(I475
I1662
Ntp927
s(I2309
I571
tp928
(I1016
I571
I1587
tp929
s(I1082
I1083
tp930
(I114
I953
I2116
tp931
s(I2458
I70
tp932
g177
s(I1035
I1036
tp933
(I1035
I1036
Ntp934
s(I803
I2104
tp935
g24
s(I524
I1350
tp936
(I524
I1350
Ntp937
s(I1329
I112
tp938
(I1056
I112
I1329
tp939
s(I2108
I2262
tp940
g207
s(I266
I1397
tp941
(I266
I1396
I1397
tp942
s(I2192
I437
tp943
g883
s(I744
I2418
tp944
(I744
I2418
Ntp945
s(I1028
I1027
tp946
(I852
I1025
I1028
tp947
s(I2369
I1517
tp948
(I121
I1452
I2369
tp949
s(I156
I2125
tp950
(I156
I1618
I2125
tp951
s(I1026
I1027
tp952
(I1025
I852
I1026
tp953
s(I970
I221
tp954
(I668
I221
I970
tp955
s(I1209
I1313
tp956
(I1209
I1313
Ntp957
s(I42
I1413
tp958
(I42
I1413
Ntp959
s(I209
I614
tp960
(I209
I2117
I614
tp961
s(I1702
I520
tp962
(I1699
I520
I1700
tp963
s(I1460
I280
tp964
g827
s(I814
I2227
tp965
g561
s(I195
I535
tp966
(I195
I535
Ntp967
s(I1079
I1078
tp968
(I624
I625
I2399
tp969
s(I469
I535
tp970
(I469
I535
Ntp971
s(I54
I623
tp972
(I54
I623
Ntp973
s(I682
I978
tp974
(I682
I978
Ntp975
s(I936
I937
tp976
g64
s(I1030
I2233
tp977
(I1030
I1359
I2233
tp978
s(I207
I1357
tp979
(I207
I155
I1357
tp980
s(I1921
I1458
tp981
g228
s(I544
I543
tp982
g390
s(I624
I2158
tp983
(I624
I2158
Ntp984
s(I139
I431
tp985
(I139
I431
Ntp986
s(I1519
I1829
tp987
g662
s(I1226
I963
tp988
g179
s(I1958
I1957
tp989
(I1089
I1680
I1958
tp990
s(I1473
I1401
tp991
(I133
I1401
I1477
tp992
s(I625
I626
tp993
(I625
I626
Ntp994
s(I608
I406
tp995
(I404
I406
I405
tp996
s(I732
I1804
tp997
g625
s(I646
I647
tp998
(I646
I647
Ntp999
s(I1960
I1719
tp1000
(I520
I1719
I1721
tp1001
s(I1506
I2345
tp1002
(I1196
I512
I2342
tp1003
s(I2092
I2093
tp1004
g48
s(I51
I52
tp1005
(I50
I53
I51
tp1006
s(I559
I1077
tp1007
(I559
I557
I1077
tp1008
s(I529
I884
tp1009
(I529
I884
Ntp1010
s(I2082
I2295
tp1011
(I2082
I2295
Ntp1012
s(I1012
I2197
tp1013
g883
s(I421
I2100
tp1014
g350
s(I1851
I913
tp1015
(I130
I604
I1851
tp1016
s(I78
I2159
tp1017
(I78
I76
I2159
tp1018
s(I554
I705
tp1019
(I554
I3
I705
tp1020
s(I206
I2003
tp1021
(I206
I2003
Ntp1022
s(I2439
I2440
tp1023
(I2434
I2440
I2435
tp1024
s(I844
I2388
tp1025
g138
s(I2370
I110
tp1026
(I199
I110
I2370
tp1027
s(I27
I28
tp1028
(I27
I28
Ntp1029
s(I191
I1983
tp1030
(I191
I1983
Ntp1031
s(I1169
I1007
tp1032
(I1005
I1007
I1168
tp1033
s(I128
I129
tp1034
(I128
I130
I129
tp1035
s(I2423
I1725
tp1036
(I1100
I1725
I2423
tp1037
s(I196
I1193
tp1038
(I196
I1193
Ntp1039
s(I1822
I2272
tp1040
g473
s(I449
I1342
tp1041
(I449
I1342
Ntp1042
s(I2077
I2078
tp1043
g617
s(I2087
I2299
tp1044
(I2087
I887
I2299
tp1045
s(I2278
I804
tp1046
(I1625
I804
I2278
tp1047
s(I542
I541
tp1048
g390
s(I145
I346
tp1049
(I145
I346
Ntp1050
s(I782
I783
tp1051
(I782
I784
I783
tp1052
s(I395
I1595
tp1053
(I395
I784
I1595
tp1054
s(I1582
I1583
tp1055
(I999
I1583
I1582
tp1056
s(I2029
I169
tp1057
(I763
I169
I1425
tp1058
s(I1104
I1688
tp1059
(I1104
I263
I1688
tp1060
s(I2487
I2488
tp1061
(I1828
I2488
I2486
tp1062
s(I1732
I1152
tp1063
g923
s(I41
I1626
tp1064
(I41
I1626
Ntp1065
s(I929
I930
tp1066
g64
s(I216
I2355
tp1067
(I216
I939
I2355
tp1068
s(I100
I1897
tp1069
(I100
I843
I1897
tp1070
s(I804
I2278
tp1071
(I804
I1625
I2278
tp1072
s(I2098
I2297
tp1073
(I654
I2297
I2098
tp1074
s(I1389
I1390
tp1075
(I1389
I1390
Ntp1076
s(I1023
I46
tp1077
(I1022
I46
I1023
tp1078
s(I1508
I1928
tp1079
(I1196
I1195
I1930
tp1080
s(I1857
I2386
tp1081
(I1857
I1717
I2386
tp1082
s(I81
I725
tp1083
(I81
I725
Ntp1084
s(I372
I425
tp1085
(I372
I425
Ntp1086
s(I445
I1656
tp1087
(I445
I1656
Ntp1088
s(I77
I2073
tp1089
(I77
I2073
Ntp1090
s(I1646
I1647
tp1091
g116
s(I815
I2062
tp1092
g561
s(I1282
I378
tp1093
(I1174
I378
I1282
tp1094
s(I1685
I1842
tp1095
(I1685
I181
I1842
tp1096
s(I348
I1670
tp1097
(I347
I1670
I348
tp1098
s(I1034
I1353
tp1099
g498
s(I2198
I1012
tp1100
g883
s(I2469
I2468
tp1101
g36
s(I150
I151
tp1102
(I149
I151
I150
tp1103
s(I1957
I1680
tp1104
g990
s(I523
I1407
tp1105
(I522
I1407
I1405
tp1106
s(I1975
I54
tp1107
(I55
I54
I1975
tp1108
s(I2233
I1030
tp1109
(I1359
I1030
I1360
tp1110
s(I541
I540
tp1111
g390
s(I802
I1322
tp1112
(I802
I1319
I1322
tp1113
s(I1049
I621
tp1114
(I622
I621
I1049
tp1115
s(I276
I361
tp1116
(I276
I361
Ntp1117
s(I1504
I2346
tp1118
g1003
s(I1428
I704
tp1119
g889
s(I134
I1455
tp1120
(I134
I1455
Ntp1121
s(I156
I550
tp1122
(I156
I550
Ntp1123
s(I872
I1250
tp1124
(I496
I1250
I872
tp1125
s(I1083
I1082
tp1126
g369
s(I87
I500
tp1127
g640
s(I2126
I2303
tp1128
(I2126
I2303
Ntp1129
s(I570
I571
tp1130
(I569
I571
I570
tp1131
s(I843
I1899
tp1132
(I843
I100
I1899
tp1133
s(I756
I757
tp1134
g94
s(I739
I1687
tp1135
(I739
I1687
Ntp1136
s(I1020
I2217
tp1137
g551
s(I1612
I984
tp1138
g44
s(I527
I582
tp1139
(I527
I582
Ntp1140
s(I734
I1008
tp1141
(I734
I1007
I1008
tp1142
s(I2276
I2275
tp1143
(I624
I1840
I2276
tp1144
s(I940
I1212
tp1145
(I940
I1212
Ntp1146
s(I758
I757
tp1147
g98
s(I2345
I1506
tp1148
g271
s(I376
I510
tp1149
(I377
I510
I487
tp1150
s(I1016
I1587
tp1151
g929
s(I1749
I1367
tp1152
g541
s(I1119
I946
tp1153
(I1118
I946
I1119
tp1154
s(I177
I1959
tp1155
(I177
I1959
Ntp1156
s(I1838
I1828
tp1157
(I1837
I1828
I1838
tp1158
s(I1658
I221
tp1159
(I1657
I221
I1658
tp1160
s(I153
I2291
tp1161
g800
s(I97
I1009
tp1162
(I97
I1009
Ntp1163
s(I191
I1115
tp1164
(I191
I624
I1115
tp1165
s(I818
I819
tp1166
g341
s(I2414
I2541
tp1167
(I2414
I2541
Ntp1168
s(I1320
I1319
tp1169
g1113
s(I2438
I2439
tp1170
g1024
s(I686
I456
tp1171
(I338
I456
I457
tp1172
s(I1107
I1108
tp1173
(I1107
I1108
Ntp1174
s(I805
I804
tp1175
(I138
I804
I805
tp1176
s(I642
I1809
tp1177
(I642
I643
I1809
tp1178
s(I1242
I1243
tp1179
(I1242
I1243
Ntp1180
s(I1539
I86
tp1181
(I193
I86
I365
tp1182
s(I1423
I1424
tp1183
g887
s(I1190
I170
tp1184
g676
s(I1785
I1786
tp1185
g483
s(I820
I821
tp1186
g341
s(I813
I1383
tp1187
(I813
I1386
I1383
tp1188
s(I1858
I1859
tp1189
g1082
s(I1830
I465
tp1190
g611
s(I1083
I1084
tp1191
g931
s(I1011
I1114
tp1192
(I1011
I404
I1114
tp1193
s(I2000
I999
tp1194
(I2305
I999
I2560
tp1195
s(I1198
I2336
tp1196
g471
s(I347
I1184
tp1197
(I347
I346
I1184
tp1198
s(I1893
I1892
tp1199
g144
s(I975
I2381
tp1200
(I975
I2383
I2381
tp1201
s(I1455
I1623
tp1202
(I1455
I135
I1623
tp1203
s(I1141
I2464
tp1204
(I1141
I2464
Ntp1205
s(I1308
I1309
tp1206
(I1307
I1311
I1308
tp1207
s(I2571
I2572
tp1208
(I1314
I2572
I2571
tp1209
s(I198
I2304
tp1210
(I198
I496
I2304
tp1211
s(I2498
I2497
tp1212
g833
s(I2371
I2472
tp1213
(I1314
I1703
I2371
tp1214
s(I1412
I524
tp1215
(I1411
I524
I1412
tp1216
s(I1234
I1235
tp1217
g662
s(I2253
I1853
tp1218
(I1598
I1853
I2253
tp1219
s(I2310
I123
tp1220
(I44
I121
I2310
tp1221
s(I1906
I1905
tp1222
g58
s(I2273
I2272
tp1223
g1144
s(I224
I1896
tp1224
g144
s(I817
I818
tp1225
g341
s(I2323
I2015
tp1226
(I547
I2015
I2325
tp1227
s(I729
I688
tp1228
g191
s(I178
I1686
tp1229
(I178
I1686
Ntp1230
s(I2287
I632
tp1231
(I2286
I632
I2287
tp1232
s(I1563
I91
tp1233
g722
s(I860
I861
tp1234
(I244
I1391
I857
tp1235
s(I94
I1262
tp1236
(I94
I173
I1262
tp1237
s(I1607
I1606
tp1238
g2
s(I977
I1227
tp1239
(I976
I1227
I977
tp1240
s(I547
I2325
tp1241
g1227
s(I1024
I139
tp1242
(I169
I139
I1024
tp1243
s(I527
I1426
tp1244
(I527
I1426
Ntp1245
s(I413
I649
tp1246
(I413
I412
I649
tp1247
s(I1655
I460
tp1248
(I1170
I460
I1655
tp1249
s(I116
I2320
tp1250
(I116
I2320
Ntp1251
s(I36
I1249
tp1252
(I36
I1249
Ntp1253
s(I296
I943
tp1254
(I296
I1088
I943
tp1255
s(I1575
I143
tp1256
g902
s(I124
I125
tp1257
g907
s(I1173
I801
tp1258
(I458
I801
I1173
tp1259
s(I1625
I2278
tp1260
g1047
s(I458
I1132
tp1261
(I458
I699
I1132
tp1262
s(I647
I2322
tp1263
(I647
I2322
Ntp1264
s(I1112
I2308
tp1265
(I1112
I1111
I2308
tp1266
s(I2089
I2090
tp1267
g48
s(I280
I675
tp1268
(I280
I1674
I675
tp1269
s(I1256
I1416
tp1270
(I1256
I1416
Ntp1271
s(I1091
I1180
tp1272
g420
s(I2446
I2445
tp1273
(I659
I1837
I2446
tp1274
s(I189
I2547
tp1275
(I189
I2547
Ntp1276
s(I2061
I2228
tp1277
g561
s(I179
I180
tp1278
(I179
I180
Ntp1279
s(I1786
I1785
tp1280
g445
s(I112
I113
tp1281
(I112
I46
I113
tp1282
s(I789
I921
tp1283
(I789
I917
I921
tp1284
s(I2208
I1388
tp1285
(I2014
I1388
I2211
tp1286
s(I45
I46
tp1287
(I45
I46
Ntp1288
s(I1571
I1572
tp1289
(I194
I477
I1571
tp1290
s(I401
I551
tp1291
(I88
I402
I401
tp1292
s(I2190
I417
tp1293
(I416
I266
I2190
tp1294
s(I1376
I332
tp1295
g226
s(I1
I136
tp1296
(I1
I136
Ntp1297
s(I809
I747
tp1298
(I15
I17
I809
tp1299
s(I1476
I1477
tp1300
g839
s(I2079
I574
tp1301
(I573
I574
I2079
tp1302
s(I946
I1374
tp1303
(I946
I947
I1374
tp1304
s(I288
I2109
tp1305
(I288
I2109
Ntp1306
s(I197
I1059
tp1307
(I197
I1059
Ntp1308
s(I2264
I2281
tp1309
(I1638
I2281
I2264
tp1310
s(I1142
I1143
tp1311
(I1141
I1143
I1142
tp1312
s(I1372
I1373
tp1313
(I1371
I1373
I1372
tp1314
s(I1713
I1751
tp1315
(I1713
I1751
Ntp1316
s(I1956
I1659
tp1317
(I515
I1659
I1956
tp1318
s(I926
I363
tp1319
g785
s(I2388
I2186
tp1320
g138
s(I252
I622
tp1321
(I252
I622
Ntp1322
s(I437
I1072
tp1323
(I437
I1071
I1072
tp1324
s(I457
I338
tp1325
g587
s(I229
I1214
tp1326
(I229
I1214
Ntp1327
s(I451
I2223
tp1328
(I451
I2223
Ntp1329
s(I2195
I2194
tp1330
g883
s(I179
I2561
tp1331
(I179
I178
I2561
tp1332
s(I1210
I1211
tp1333
(I1210
I1212
I1211
tp1334
s(I470
I475
tp1335
(I470
I475
Ntp1336
s(I254
I20
tp1337
(I149
I20
I254
tp1338
s(I54
I1562
tp1339
(I54
I1562
Ntp1340
s(I406
I1038
tp1341
(I406
I1038
Ntp1342
s(I404
I1597
tp1343
(I404
I1227
I1597
tp1344
s(I744
I1074
tp1345
(I744
I1074
Ntp1346
s(I2468
I2467
tp1347
g36
s(I88
I193
tp1348
(I88
I193
Ntp1349
s(I416
I899
tp1350
(I416
I899
Ntp1351
s(I1876
I1877
tp1352
g527
s(I169
I762
tp1353
(I169
I168
I762
tp1354
s(I153
I907
tp1355
(I153
I220
I907
tp1356
s(I1156
I1155
tp1357
(I237
I1099
I1156
tp1358
s(I229
I230
tp1359
(I229
I230
Ntp1360
s(I155
I1231
tp1361
(I155
I1231
Ntp1362
s(I445
I2463
tp1363
g160
s(I2221
I2220
tp1364
(I1934
I1020
I1935
tp1365
s(I1929
I1930
tp1366
g607
s(I1454
I1466
tp1367
g842
s(I716
I2417
tp1368
(I716
I2417
Ntp1369
s(I1890
I1889
tp1370
g144
s(I1668
I2402
tp1371
(I283
I106
I1668
tp1372
s(I1132
I458
tp1373
(I699
I458
I1132
tp1374
s(I2305
I2560
tp1375
g1195
s(I1943
I1944
tp1376
(I1699
I1944
I1943
tp1377
s(I2157
I181
tp1378
(I118
I181
I2157
tp1379
s(I1633
I1634
tp1380
(I1633
I1635
I1634
tp1381
s(I1586
I1984
tp1382
g807
s(I907
I153
tp1383
(I220
I153
I907
tp1384
s(I2458
I2459
tp1385
(I71
I69
I2455
tp1386
s(I764
I1852
tp1387
g148
s(I445
I1088
tp1388
(I445
I1088
Ntp1389
s(I88
I89
tp1390
(I88
I89
Ntp1391
s(I750
I26
tp1392
(I27
I26
I750
tp1393
s(I2399
I1080
tp1394
g969
s(I2
I409
tp1395
(I2
I409
Ntp1396
s(I158
I1332
tp1397
(I158
I159
I1332
tp1398
s(I181
I182
tp1399
(I181
I182
Ntp1400
s(I1907
I1906
tp1401
g58
s(I1787
I1788
tp1402
g483
s(I1239
I978
tp1403
(I681
I978
I1239
tp1404
s(I744
I960
tp1405
(I744
I960
Ntp1406
s(I714
I715
tp1407
(I713
I715
I714
tp1408
s(I1685
I1984
tp1409
(I1685
I1586
I1984
tp1410
s(I848
I2052
tp1411
(I848
I2056
I2052
tp1412
s(I164
I165
tp1413
(I164
I165
Ntp1414
s(I170
I1190
tp1415
g1237
s(I1346
I1579
tp1416
g491
s(I2332
I223
tp1417
g354
s(I367
I1569
tp1418
(I367
I616
I1569
tp1419
s(I1352
I1353
tp1420
(I1352
I1034
I1353
tp1421
s(I262
I884
tp1422
(I262
I884
Ntp1423
s(I2414
I2415
tp1424
(I2414
I1603
I2415
tp1425
s(I68
I214
tp1426
(I68
I214
Ntp1427
s(I430
I533
tp1428
(I430
I533
Ntp1429
s(I503
I1185
tp1430
(I503
I1185
Ntp1431
s(I493
I1481
tp1432
(I493
I167
I1481
tp1433
s(I681
I1239
tp1434
g1404
s(I961
I2095
tp1435
(I961
I2095
Ntp1436
s(I199
I2370
tp1437
g1027
s(I386
I1968
tp1438
(I386
I1968
Ntp1439
s(I2219
I2218
tp1440
g1365
s(I1696
I2152
tp1441
(I1696
I2152
Ntp1442
s(I69
I2314
tp1443
(I69
I1840
I2314
tp1444
s(I1725
I2365
tp1445
g514
s(I2207
I530
tp1446
g134
s(I35
I1536
tp1447
(I35
I1536
Ntp1448
s(I967
I966
tp1449
g173
s(I1688
I1104
tp1450
g247
s(I863
I1391
tp1451
(I411
I1391
I1392
tp1452
s(I55
I162
tp1453
(I55
I162
Ntp1454
s(I1784
I1785
tp1455
g483
s(I226
I1888
tp1456
g144
s(I1507
I1929
tp1457
g607
s(I682
I2235
tp1458
(I682
I2235
Ntp1459
s(I234
I2505
tp1460
g715
s(I2404
I2403
tp1461
(I2249
I283
I2404
tp1462
s(I911
I2180
tp1463
(I912
I910
I2181
tp1464
s(I2016
I631
tp1465
(I795
I631
I2016
tp1466
s(I547
I548
tp1467
(I547
I549
I548
tp1468
s(I1816
I1817
tp1469
(I892
I1817
I1816
tp1470
s(I687
I455
tp1471
(I456
I455
I882
tp1472
s(I2544
I2545
tp1473
(I412
I55
I2543
tp1474
s(I182
I2232
tp1475
(I182
I1801
I2232
tp1476
s(I797
I798
tp1477
(I797
I798
Ntp1478
s(I417
I2190
tp1479
g394
s(I360
I458
tp1480
(I360
I458
Ntp1481
s(I2334
I2333
tp1482
g354
s(I1938
I2138
tp1483
(I55
I2138
I1938
tp1484
s(I1159
I1413
tp1485
(I1159
I1413
Ntp1486
s(I1522
I1523
tp1487
(I101
I1525
I1679
tp1488
s(I53
I1669
tp1489
g791
s(I2324
I2323
tp1490
g1227
s(I1268
I2290
tp1491
(I1268
I1269
I2290
tp1492
s(I1360
I2233
tp1493
g1110
s(I655
I656
tp1494
(I655
I656
Ntp1495
s(I1847
I1848
tp1496
(I1844
I130
I1845
tp1497
s(I2141
I2128
tp1498
(I2129
I871
I2141
tp1499
s(I512
I513
tp1500
(I512
I514
I513
tp1501
s(I676
I1674
tp1502
(I676
I1674
Ntp1503
s(I1141
I1142
tp1504
g1312
s(I1699
I1943
tp1505
g1377
s(I665
I664
tp1506
g136
s(I2221
I1935
tp1507
g551
s(I2477
I2478
tp1508
(I2475
I209
I2476
tp1509
s(I2255
I2256
tp1510
g459
s(I998
I1931
tp1511
(I998
I742
I1931
tp1512
s(I477
I478
tp1513
(I477
I479
I478
tp1514
s(I80
I725
tp1515
(I80
I725
Ntp1516
s(I2094
I2377
tp1517
(I2094
I2377
Ntp1518
s(I397
I906
tp1519
(I154
I906
I294
tp1520
s(I131
I132
tp1521
(I131
I133
I132
tp1522
s(I371
I382
tp1523
(I371
I382
Ntp1524
s(I456
I882
tp1525
g1472
s(I68
I283
tp1526
(I68
I283
Ntp1527
s(I355
I354
tp1528
g872
s(I621
I1049
tp1529
(I621
I622
I1049
tp1530
s(I1112
I2138
tp1531
(I1112
I2138
Ntp1532
s(I520
I521
tp1533
(I520
I522
I521
tp1534
s(I1510
I852
tp1535
g567
s(I350
I1073
tp1536
(I350
I158
I1073
tp1537
s(I62
I639
tp1538
(I62
I639
Ntp1539
s(I451
I2067
tp1540
(I451
I2067
Ntp1541
s(I2131
I2391
tp1542
(I2131
I2391
Ntp1543
s(I2039
I2040
tp1544
g356
s(I12
I746
tp1545
(I12
I746
Ntp1546
s(I1887
I1886
tp1547
g144
s(I2163
I875
tp1548
(I2160
I875
I2161
tp1549
s(I55
I1938
tp1550
g1484
s(I717
I1014
tp1551
(I717
I1014
Ntp1552
s(I1638
I2505
tp1553
(I1638
I234
I2505
tp1554
s(I97
I2038
tp1555
(I97
I2038
Ntp1556
s(I1882
I1883
tp1557
g10
s(I2029
I1425
tp1558
(I169
I763
I2029
tp1559
s(I136
I1153
tp1560
(I136
I1152
I1153
tp1561
s(I2047
I2048
tp1562
g333
s(I2180
I911
tp1563
g112
s(I2211
I2014
tp1564
g634
s(I22
I2095
tp1565
(I22
I2095
Ntp1566
s(I1125
I1126
tp1567
(I1124
I1126
I1125
tp1568
s(I156
I1166
tp1569
(I156
I1166
Ntp1570
s(I1108
I1459
tp1571
(I1108
I1459
Ntp1572
s(I2015
I2323
tp1573
(I2015
I547
I2323
tp1574
s(I1168
I1006
tp1575
g1033
s(I1995
I1996
tp1576
(I1900
I1998
I1991
tp1577
s(I192
I2562
tp1578
g664
s(I234
I1954
tp1579
(I234
I1954
Ntp1580
s(I604
I914
tp1581
g508
s(I1362
I1430
tp1582
(I1362
I1430
Ntp1583
s(I559
I1051
tp1584
(I559
I1051
Ntp1585
s(I98
I1599
tp1586
(I98
I1599
Ntp1587
s(I1266
I612
tp1588
(I1265
I612
I1266
tp1589
s(I585
I586
tp1590
(I585
I590
I586
tp1591
s(I784
I1595
tp1592
(I784
I395
I1595
tp1593
s(I934
I935
tp1594
g64
s(I36
I195
tp1595
(I36
I195
Ntp1596
s(I402
I552
tp1597
(I402
I552
Ntp1598
s(I1717
I2129
tp1599
(I1717
I2129
Ntp1600
s(I2297
I2557
tp1601
(I2297
I2557
Ntp1602
s(I2071
I2072
tp1603
(I2071
I2072
Ntp1604
s(I2371
I1314
tp1605
g865
s(I1935
I2221
tp1606
g1365
s(I1446
I1447
tp1607
(I1446
I1447
Ntp1608
s(I589
I590
tp1609
g1591
s(I2179
I2180
tp1610
g112
s(I202
I109
tp1611
g126
s(I807
I877
tp1612
(I807
I808
I877
tp1613
s(I3
I555
tp1614
(I3
I554
I555
tp1615
s(I280
I281
tp1616
(I280
I283
I281
tp1617
s(I773
I774
tp1618
(I773
I88
I774
tp1619
s(I1853
I2253
tp1620
(I1853
I1598
I2253
tp1621
s(I126
I1765
tp1622
g907
s(I817
I2298
tp1623
(I817
I887
I2298
tp1624
s(I450
I451
tp1625
(I450
I451
Ntp1626
s(I1639
I1622
tp1627
g222
s(I2331
I43
tp1628
g649
s(I1413
I1666
tp1629
(I1413
I1666
Ntp1630
s(I2241
I2305
tp1631
(I2241
I2305
Ntp1632
s(I1505
I2345
tp1633
g271
s(I1622
I1954
tp1634
(I1622
I1954
Ntp1635
s(I2315
I68
tp1636
(I69
I68
I2315
tp1637
s(I287
I1570
tp1638
(I287
I1570
Ntp1639
s(I444
I737
tp1640
(I444
I443
I737
tp1641
s(I1752
I2142
tp1642
(I100
I101
I1752
tp1643
s(I1853
I1854
tp1644
(I1853
I1598
I1854
tp1645
s(I563
I1746
tp1646
(I563
I1747
I1746
tp1647
s(I54
I1971
tp1648
(I54
I55
I1971
tp1649
s(I212
I2117
tp1650
(I212
I2117
Ntp1651
s(I1805
I732
tp1652
g625
s(I186
I574
tp1653
(I186
I574
Ntp1654
s(I1950
I1951
tp1655
(I1950
I1951
Ntp1656
s(I98
I684
tp1657
(I98
I684
Ntp1658
s(I445
I664
tp1659
(I445
I667
I664
tp1660
s(I789
I1393
tp1661
(I789
I788
I1393
tp1662
s(I946
I1119
tp1663
(I946
I1118
I1119
tp1664
s(I1594
I112
tp1665
(I199
I112
I1594
tp1666
s(I543
I542
tp1667
g390
s(I693
I498
tp1668
(I93
I498
I499
tp1669
s(I112
I1329
tp1670
(I112
I1056
I1329
tp1671
s(I755
I754
tp1672
g98
s(I236
I1857
tp1673
(I236
I1857
Ntp1674
s(I1478
I1596
tp1675
(I1478
I1596
Ntp1676
s(I410
I1565
tp1677
(I411
I252
I1564
tp1678
s(I104
I1755
tp1679
(I104
I103
I1755
tp1680
s(I1434
I1435
tp1681
(I788
I1436
I1433
tp1682
s(I496
I2304
tp1683
(I496
I198
I2304
tp1684
s(I734
I1648
tp1685
g20
s(I1989
I2240
tp1686
(I1989
I2240
Ntp1687
s(I596
I2024
tp1688
(I596
I55
I2024
tp1689
s(I436
I2117
tp1690
(I436
I2117
Ntp1691
s(I2281
I2380
tp1692
(I2281
I2380
Ntp1693
s(I574
I1298
tp1694
(I574
I573
I1298
tp1695
s(I745
I345
tp1696
(I22
I345
I853
tp1697
s(I194
I753
tp1698
(I194
I479
I753
tp1699
s(I228
I1216
tp1700
(I228
I2120
I1216
tp1701
s(I1003
I1936
tp1702
(I1003
I1678
I1936
tp1703
s(I529
I1427
tp1704
(I529
I1427
Ntp1705
s(I1340
I368
tp1706
(I1290
I368
I1339
tp1707
s(I479
I752
tp1708
(I479
I751
I752
tp1709
s(I1317
I2126
tp1710
(I1317
I2126
Ntp1711
s(I1831
I485
tp1712
(I484
I464
I1831
tp1713
s(I195
I851
tp1714
(I195
I617
I851
tp1715
s(I877
I808
tp1716
g1613
s(I114
I2143
tp1717
(I114
I2143
Ntp1718
s(I742
I743
tp1719
g778
s(I2478
I209
tp1720
g1509
s(I790
I1334
tp1721
(I790
I789
I1334
tp1722
s(I973
I1361
tp1723
(I263
I1361
I972
tp1724
s(I817
I2058
tp1725
(I817
I816
I2058
tp1726
s(I1713
I1963
tp1727
(I1713
I1963
Ntp1728
s(I1107
I1444
tp1729
(I1107
I767
I1444
tp1730
s(I149
I150
tp1731
g1103
s(I194
I1571
tp1732
g1290
s(I525
I1022
tp1733
(I525
I1022
Ntp1734
s(I344
I853
tp1735
(I345
I22
I745
tp1736
s(I2526
I2527
tp1737
(I2201
I2126
I2525
tp1738
s(I910
I2176
tp1739
(I910
I124
I2176
tp1740
s(I226
I1889
tp1741
g10
s(I2369
I121
tp1742
g713
s(I1628
I1627
tp1743
(I1631
I1627
I1947
tp1744
s(I1539
I481
tp1745
g597
s(I2559
I2000
tp1746
g1195
s(I1088
I1970
tp1747
(I1088
I296
I1970
tp1748
s(I1766
I1283
tp1749
g321
s(I555
I705
tp1750
g1615
s(I722
I1769
tp1751
g416
s(I558
I1076
tp1752
g1008
s(I1754
I103
tp1753
g1680
s(I1369
I830
tp1754
(I1368
I830
I1369
tp1755
s(I1311
I1312
tp1756
(I1311
I1312
Ntp1757
s(I301
I949
tp1758
(I299
I949
I300
tp1759
s(I1056
I1329
tp1760
g939
s(I1114
I1011
tp1761
(I404
I1011
I1114
tp1762
s(I20
I472
tp1763
(I20
I22
I472
tp1764
s(I6
I577
tp1765
(I6
I498
I577
tp1766
s(I2382
I2383
tp1767
g1201
s(I351
I1294
tp1768
g130
s(I875
I2163
tp1769
g856
s(I1592
I1593
tp1770
(I1592
I1593
Ntp1771
s(I2205
I2206
tp1772
(I2205
I2206
Ntp1773
s(I1314
I2371
tp1774
g1214
s(I124
I1166
tp1775
(I124
I1166
Ntp1776
s(I1966
I1967
tp1777
g439
s(I238
I1966
tp1778
(I238
I1966
Ntp1779
s(I1567
I1500
tp1780
g605
s(I557
I1076
tp1781
(I557
I559
I1076
tp1782
s(I744
I1348
tp1783
(I744
I947
I1348
tp1784
s(I611
I612
tp1785
(I611
I612
Ntp1786
s(I406
I608
tp1787
(I406
I404
I608
tp1788
s(I423
I898
tp1789
(I423
I898
Ntp1790
s(I581
I1333
tp1791
(I581
I1333
Ntp1792
s(I1429
I1966
tp1793
(I238
I1966
I1429
tp1794
s(I652
I1204
tp1795
(I652
I1201
I1204
tp1796
s(I413
I1640
tp1797
g382
s(I692
I1880
tp1798
(I691
I25
I692
tp1799
s(I1264
I1641
tp1800
(I1264
I413
I1641
tp1801
s(I1424
I404
tp1802
g887
s(I1141
I2376
tp1803
(I1141
I2376
Ntp1804
s(I777
I778
tp1805
(I776
I778
I777
tp1806
s(I1798
I2520
tp1807
(I1798
I2520
Ntp1808
s(I1204
I1203
tp1809
g1796
s(I814
I2062
tp1810
g763
s(I2232
I182
tp1811
(I1801
I182
I2232
tp1812
s(I1547
I1548
tp1813
g636
s(I1655
I1170
tp1814
(I460
I1170
I1655
tp1815
s(I954
I754
tp1816
(I139
I754
I2110
tp1817
s(I721
I722
tp1818
g416
s(I2552
I1054
tp1819
g203
s(I1660
I1375
tp1820
(I367
I1375
I1660
tp1821
s(I78
I1826
tp1822
(I78
I1826
Ntp1823
s(I794
I795
tp1824
g52
s(I1159
I1626
tp1825
(I1159
I1626
Ntp1826
s(I1421
I1422
tp1827
g887
s(I664
I665
tp1828
g1660
s(I2311
I1840
tp1829
g1444
s(I331
I1179
tp1830
(I331
I1179
Ntp1831
s(I103
I2097
tp1832
(I103
I2097
Ntp1833
s(I2434
I2435
tp1834
g1024
s(I866
I867
tp1835
(I865
I868
I2172
tp1836
s(I1414
I1710
tp1837
(I1414
I1710
Ntp1838
s(I463
I2191
tp1839
(I463
I2191
Ntp1840
s(I35
I517
tp1841
(I35
I517
Ntp1842
s(I344
I745
tp1843
g1697
s(I1272
I1395
tp1844
(I947
I744
I1272
tp1845
s(I716
I1972
tp1846
(I716
I1973
I1972
tp1847
s(I1404
I1537
tp1848
(I1016
I1015
I1404
tp1849
s(I595
I1158
tp1850
(I595
I1158
Ntp1851
s(I1337
I2365
tp1852
(I1337
I1725
I2365
tp1853
s(I668
I669
tp1854
(I668
I436
I669
tp1855
s(I2129
I2141
tp1856
g1499
s(I65
I1774
tp1857
g483
s(I195
I469
tp1858
(I195
I469
Ntp1859
s(I1848
I1849
tp1860
g1497
s(I290
I291
tp1861
(I289
I291
I290
tp1862
s(I2350
I1503
tp1863
g271
s(I1230
I486
tp1864
g1713
s(I565
I566
tp1865
g82
s(I193
I576
tp1866
(I193
I400
I576
tp1867
s(I1574
I1573
tp1868
(I477
I194
I1574
tp1869
s(I672
I673
tp1870
g1855
s(I524
I1410
tp1871
(I524
I1410
Ntp1872
s(I137
I138
tp1873
(I137
I138
Ntp1874
s(I143
I194
tp1875
(I143
I194
Ntp1876
s(I1034
I1482
tp1877
(I1034
I1482
Ntp1878
s(I2348
I2349
tp1879
g1003
s(I209
I2478
tp1880
(I209
I2475
I2478
tp1881
s(I2199
I438
tp1882
g329
s(I73
I2083
tp1883
(I73
I2083
Ntp1884
s(I940
I1241
tp1885
(I940
I1241
Ntp1886
s(I1196
I2342
tp1887
g1003
s(I24
I1327
tp1888
(I24
I1327
Ntp1889
s(I281
I282
tp1890
g1617
s(I10
I248
tp1891
(I10
I248
Ntp1892
s(I1374
I1349
tp1893
g1304
s(I419
I420
tp1894
(I193
I420
I419
tp1895
s(I1729
I1728
tp1896
(I833
I1727
I1729
tp1897
s(I320
I923
tp1898
(I320
I925
I923
tp1899
s(I121
I1451
tp1900
(I121
I1451
Ntp1901
s(I437
I2192
tp1902
g329
s(I135
I1466
tp1903
(I135
I444
I1466
tp1904
s(I413
I595
tp1905
(I413
I595
Ntp1906
s(I1521
I768
tp1907
g453
s(I399
I736
tp1908
(I399
I736
Ntp1909
s(I1930
I1196
tp1910
g607
s(I826
I546
tp1911
(I180
I546
I827
tp1912
s(I188
I1365
tp1913
(I188
I1365
Ntp1914
s(I334
I1185
tp1915
(I334
I1185
Ntp1916
s(I1516
I1515
tp1917
g867
s(I1210
I2250
tp1918
(I1210
I2250
Ntp1919
s(I390
I1723
tp1920
(I390
I1723
Ntp1921
s(I1779
I1780
tp1922
g483
s(I2506
I2169
tp1923
(I519
I1699
I2506
tp1924
s(I183
I1945
tp1925
(I183
I1945
Ntp1926
s(I273
I274
tp1927
(I271
I274
I272
tp1928
s(I109
I2551
tp1929
g203
s(I904
I1570
tp1930
(I904
I1570
Ntp1931
s(I1205
I1206
tp1932
g565
s(I113
I46
tp1933
g1282
s(I1332
I159
tp1934
g1398
s(I101
I1447
tp1935
(I101
I1447
Ntp1936
s(I1193
I1833
tp1937
(I1193
I1833
Ntp1938
s(I146
I1047
tp1939
(I146
I1047
Ntp1940
s(I1709
I1074
tp1941
(I346
I1074
I1709
tp1942
s(I2441
I2385
tp1943
(I2440
I2385
I2441
tp1944
s(I208
I1295
tp1945
(I208
I1295
Ntp1946
s(I408
I1292
tp1947
(I408
I1292
Ntp1948
s(I1774
I1775
tp1949
g483
s(I280
I1460
tp1950
(I280
I278
I1460
tp1951
s(I2319
I2320
tp1952
(I2319
I2320
Ntp1953
s(I135
I1623
tp1954
(I135
I1455
I1623
tp1955
s(I1598
I2253
tp1956
g1219
s(I677
I676
tp1957
g216
s(I1969
I2374
tp1958
(I566
I1195
I1969
tp1959
s(I1206
I1207
tp1960
g565
s(I175
I176
tp1961
(I76
I177
I174
tp1962
s(I406
I1105
tp1963
(I406
I408
I1105
tp1964
s(I215
I1793
tp1965
(I214
I106
I215
tp1966
s(I389
I269
tp1967
g428
s(I1278
I1277
tp1968
(I238
I237
I1278
tp1969
s(I356
I1596
tp1970
(I356
I1596
Ntp1971
s(I90
I91
tp1972
(I90
I91
Ntp1973
s(I1977
I2068
tp1974
(I1621
I2068
I1977
tp1975
s(I571
I709
tp1976
(I571
I709
Ntp1977
s(I1585
I1562
tp1978
(I507
I1562
I1561
tp1979
s(I535
I955
tp1980
(I535
I140
I955
tp1981
s(I638
I1000
tp1982
(I638
I1000
Ntp1983
s(I559
I1238
tp1984
(I559
I730
I1238
tp1985
s(I193
I419
tp1986
g1895
s(I46
I1023
tp1987
(I46
I1022
I1023
tp1988
s(I285
I904
tp1989
(I285
I904
Ntp1990
s(I2004
I1386
tp1991
(I927
I1386
I2004
tp1992
s(I1044
I1045
tp1993
g230
s(I1007
I1342
tp1994
(I1007
I1342
Ntp1995
s(I1770
I778
tp1996
(I1400
I778
I1771
tp1997
s(I2133
I2333
tp1998
(I223
I1198
I2332
tp1999
s(I2222
I1677
tp2000
g1018
s(I2460
I1070
tp2001
(I1501
I1659
I1865
tp2002
s(I1572
I1571
tp2003
g1869
s(I118
I1606
tp2004
(I118
I979
I1606
tp2005
s(I879
I880
tp2006
(I879
I880
Ntp2007
s(I1588
I2107
tp2008
(I1588
I2107
Ntp2009
s(I1249
I1439
tp2010
(I1249
I80
I1439
tp2011
s(I1375
I1660
tp2012
(I1375
I367
I1660
tp2013
s(I1680
I1681
tp2014
g595
s(I1837
I2444
tp2015
(I1837
I659
I2444
tp2016
s(I573
I2079
tp2017
g1302
s(I1184
I346
tp2018
g1198
s(I1132
I699
tp2019
g1262
s(I156
I349
tp2020
(I156
I349
Ntp2021
s(I2309
I1017
tp2022
(I571
I1016
I2309
tp2023
s(I237
I1276
tp2024
(I237
I238
I1276
tp2025
s(I974
I975
tp2026
(I974
I975
Ntp2027
s(I847
I848
tp2028
(I847
I848
Ntp2029
s(I2049
I2048
tp2030
g74
s(I1334
I789
tp2031
g1722
s(I1609
I1610
tp2032
g693
s(I167
I2389
tp2033
(I167
I2389
Ntp2034
s(I726
I493
tp2035
(I83
I493
I726
tp2036
s(I999
I1582
tp2037
g1056
s(I1359
I1360
tp2038
g1110
s(I967
I968
tp2039
g697
s(I11
I515
tp2040
(I11
I515
Ntp2041
s(I134
I1461
tp2042
g449
s(I505
I506
tp2043
g553
s(I2124
I2125
tp2044
g46
s(I719
I203
tp2045
(I205
I73
I718
tp2046
s(I2040
I2039
tp2047
(I849
I2038
I2042
tp2048
s(I572
I224
tp2049
(I223
I224
I572
tp2050
s(I260
I372
tp2051
(I260
I372
Ntp2052
s(I315
I316
tp2053
(I302
I318
I303
tp2054
s(I246
I510
tp2055
(I246
I510
Ntp2056
s(I1444
I1107
tp2057
(I767
I1107
I1444
tp2058
s(I1066
I1067
tp2059
(I1066
I1069
I1067
tp2060
s(I2504
I2503
tp2061
g833
s(I103
I1754
tp2062
(I103
I104
I1754
tp2063
s(I1580
I1346
tp2064
g491
s(I1820
I1821
tp2065
(I1820
I1821
Ntp2066
s(I2177
I910
tp2067
g1464
s(I2313
I2312
tp2068
g1444
s(I165
I647
tp2069
(I165
I647
Ntp2070
s(I869
I1750
tp2071
(I869
I1750
Ntp2072
s(I214
I2249
tp2073
(I214
I2249
Ntp2074
s(I1725
I2423
tp2075
(I1725
I1100
I2423
tp2076
s(I670
I671
tp2077
g1855
s(I2394
I1744
tp2078
(I1145
I1143
I2394
tp2079
s(I1145
I2216
tp2080
(I1145
I2216
Ntp2081
s(I553
I403
tp2082
(I404
I403
I553
tp2083
s(I511
I512
tp2084
(I511
I512
Ntp2085
s(I626
I1172
tp2086
g876
s(I650
I2281
tp2087
(I650
I2281
Ntp2088
s(I1104
I2316
tp2089
(I1104
I2223
I2316
tp2090
s(I1523
I1524
tp2091
g1488
s(I334
I433
tp2092
(I334
I433
Ntp2093
s(I654
I770
tp2094
(I654
I770
Ntp2095
s(I466
I25
tp2096
(I465
I25
I466
tp2097
s(I587
I588
tp2098
g1591
s(I1796
I1871
tp2099
g90
s(I69
I2315
tp2100
g1637
s(I1300
I737
tp2101
(I443
I444
I1300
tp2102
s(I1656
I1657
tp2103
(I1656
I1657
Ntp2104
s(I1163
I634
tp2105
(I635
I634
I1163
tp2106
s(I1274
I1950
tp2107
(I1274
I1950
Ntp2108
s(I1728
I1727
tp2109
g1897
s(I69
I2459
tp2110
g177
s(I1149
I1390
tp2111
(I730
I1390
I1148
tp2112
s(I2064
I238
tp2113
(I1271
I238
I2064
tp2114
s(I431
I432
tp2115
(I431
I432
Ntp2116
s(I919
I918
tp2117
g1284
s(I1007
I1169
tp2118
g516
s(I454
I883
tp2119
g257
s(I93
I156
tp2120
(I93
I156
Ntp2121
s(I408
I1853
tp2122
(I408
I1853
Ntp2123
s(I884
I1427
tp2124
(I884
I1427
Ntp2125
s(I99
I685
tp2126
(I99
I685
Ntp2127
s(I1711
I2356
tp2128
g1068
s(I64
I1773
tp2129
(I63
I1773
I64
tp2130
s(I507
I1254
tp2131
(I507
I505
I1254
tp2132
s(I489
I490
tp2133
(I489
I490
Ntp2134
s(I1251
I1252
tp2135
(I598
I1252
I1251
tp2136
s(I2149
I2150
tp2137
(I2146
I2151
I2147
tp2138
s(I1084
I1083
tp2139
g369
s(I420
I451
tp2140
(I420
I451
Ntp2141
s(I940
I1213
tp2142
(I940
I1213
Ntp2143
s(I2126
I2569
tp2144
(I2126
I2569
Ntp2145
s(I299
I300
tp2146
g1759
s(I2123
I2470
tp2147
g36
s(I2282
I642
tp2148
(I643
I642
I2282
tp2149
s(I747
I16
tp2150
g1299
s(I1416
I1417
tp2151
(I1416
I1417
Ntp2152
s(I2233
I1360
tp2153
g978
s(I2462
I2575
tp2154
(I2462
I2576
I2575
tp2155
s(I454
I584
tp2156
(I454
I584
Ntp2157
s(I553
I404
tp2158
(I403
I404
I553
tp2159
s(I93
I499
tp2160
g1669
s(I2037
I2038
tp2161
g529
s(I78
I696
tp2162
(I78
I79
I696
tp2163
s(I377
I1804
tp2164
g583
s(I1613
I1614
tp2165
g831
s(I1827
I2057
tp2166
(I1827
I2057
Ntp2167
s(I744
I758
tp2168
g98
s(I1607
I1608
tp2169
g2005
s(I71
I2455
tp2170
g1386
s(I1517
I2369
tp2171
g713
s(I1814
I2489
tp2172
(I1814
I2489
Ntp2173
s(I861
I862
tp2174
g1235
s(I2084
I232
tp2175
(I231
I232
I2084
tp2176
s(I1370
I2391
tp2177
(I1370
I2391
Ntp2178
s(I1641
I1640
tp2179
g1801
s(I165
I1031
tp2180
(I165
I1031
Ntp2181
s(I257
I1326
tp2182
(I257
I1326
Ntp2183
s(I399
I1695
tp2184
(I399
I400
I1695
tp2185
s(I2276
I624
tp2186
g473
s(I1587
I1016
tp2187
g2023
s(I2473
I2493
tp2188
(I2473
I2493
Ntp2189
s(I2126
I2529
tp2190
(I2126
I2201
I2529
tp2191
s(I1792
I1791
tp2192
g445
s(I1092
I1093
tp2193
(I1092
I1098
I1093
tp2194
s(I327
I1248
tp2195
(I327
I1248
Ntp2196
s(I1028
I852
tp2197
g953
s(I1775
I1774
tp2198
g445
s(I645
I2568
tp2199
(I645
I2251
I2568
tp2200
s(I71
I1492
tp2201
(I71
I1497
I1492
tp2202
s(I537
I268
tp2203
(I433
I268
I537
tp2204
s(I416
I2190
tp2205
g1294
s(I1771
I1770
tp2206
g1997
s(I412
I649
tp2207
(I412
I413
I649
tp2208
s(I1697
I2152
tp2209
(I1697
I2152
Ntp2210
s(I2008
I2007
tp2211
g536
s(I169
I1042
tp2212
(I169
I195
I1042
tp2213
s(I1225
I1541
tp2214
(I961
I962
I1225
tp2215
s(I1883
I1884
tp2216
g10
s(I524
I1438
tp2217
(I524
I1438
Ntp2218
s(I1700
I1701
tp2219
g963
s(I1354
I1445
tp2220
g666
s(I163
I57
tp2221
g469
s(I1198
I2335
tp2222
g354
s(I1178
I500
tp2223
g502
s(I1112
I2279
tp2224
(I1112
I2279
Ntp2225
s(I43
I1413
tp2226
(I43
I1413
Ntp2227
s(I1509
I1510
tp2228
g567
s(I492
I2074
tp2229
(I492
I2074
Ntp2230
s(I699
I1050
tp2231
(I699
I1050
Ntp2232
s(I930
I931
tp2233
g64
s(I44
I2310
tp2234
g1221
s(I2283
I2068
tp2235
(I789
I2068
I2283
tp2236
s(I1590
I2245
tp2237
g717
s(I2220
I2219
tp2238
g1365
s(I522
I1405
tp2239
g1106
s(I404
I1745
tp2240
(I404
I1227
I1745
tp2241
s(I120
I233
tp2242
(I120
I233
Ntp2243
s(I731
I2103
tp2244
(I377
I730
I731
tp2245
s(I1486
I1487
tp2246
g791
s(I2065
I2066
tp2247
(I2065
I121
I2066
tp2248
s(I1676
I620
tp2249
(I621
I620
I1676
tp2250
s(I1194
I1195
tp2251
g1959
s(I257
I961
tp2252
(I257
I961
Ntp2253
s(I2456
I2457
tp2254
g1386
s(I404
I405
tp2255
g996
s(I2011
I1387
tp2256
(I1386
I1387
I2005
tp2257
s(I2244
I2261
tp2258
g632
s(I1301
I1875
tp2259
(I1301
I1875
Ntp2260
s(I849
I2042
tp2261
g2048
s(I48
I47
tp2262
(I50
I47
I1021
tp2263
s(I38
I334
tp2264
(I38
I334
Ntp2265
s(I223
I572
tp2266
g2050
s(I902
I978
tp2267
(I902
I978
Ntp2268
s(I1317
I2373
tp2269
g331
s(I193
I1964
tp2270
(I193
I1964
Ntp2271
s(I2468
I2469
tp2272
g403
s(I1099
I1763
tp2273
g795
s(I242
I1462
tp2274
(I242
I563
I1462
tp2275
s(I408
I706
tp2276
(I408
I706
Ntp2277
s(I688
I729
tp2278
g150
s(I70
I2458
tp2279
g1386
s(I1499
I252
tp2280
(I253
I252
I1499
tp2281
s(I1148
I1149
tp2282
g2112
s(I165
I1033
tp2283
(I165
I1033
Ntp2284
s(I1174
I1282
tp2285
g1094
s(I557
I1165
tp2286
(I557
I1165
Ntp2287
s(I2111
I1673
tp2288
g284
s(I940
I941
tp2289
(I940
I941
Ntp2290
s(I951
I952
tp2291
g541
s(I1849
I1848
tp2292
g363
s(I375
I1053
tp2293
(I375
I245
I1053
tp2294
s(I2195
I482
tp2295
g329
s(I297
I298
tp2296
(I297
I298
Ntp2297
s(I2338
I2337
tp2298
g860
s(I2186
I2388
tp2299
g638
s(I842
I1441
tp2300
(I842
I1442
I1441
tp2301
s(I1854
I1598
tp2302
g1645
s(I1173
I458
tp2303
(I801
I458
I1173
tp2304
s(I1435
I1436
tp2305
g1682
s(I2004
I927
tp2306
(I1386
I927
I2004
tp2307
s(I108
I2549
tp2308
g126
s(I2499
I2498
tp2309
g833
s(I1241
I2507
tp2310
(I1241
I2507
Ntp2311
s(I2298
I817
tp2312
(I887
I817
I2298
tp2313
s(I1284
I1285
tp2314
g321
s(I1948
I375
tp2315
(I245
I375
I1948
tp2316
s(I722
I721
tp2317
(I1649
I720
I1769
tp2318
s(I140
I1228
tp2319
(I140
I1228
Ntp2320
s(I1869
I2321
tp2321
g90
s(I2317
I679
tp2322
g216
s(I1138
I1139
tp2323
(I208
I1141
I1138
tp2324
s(I1828
I2486
tp2325
g1062
s(I311
I312
tp2326
g2054
s(I1151
I1152
tp2327
(I173
I1152
I1151
tp2328
s(I153
I906
tp2329
(I153
I906
Ntp2330
s(I2560
I2305
tp2331
g738
s(I1480
I1987
tp2332
g912
s(I1394
I2105
tp2333
(I1394
I2105
Ntp2334
s(I1371
I1372
tp2335
g1314
s(I160
I1267
tp2336
g525
s(I706
I1010
tp2337
(I706
I1010
Ntp2338
s(I130
I1675
tp2339
(I130
I622
I1675
tp2340
s(I988
I1187
tp2341
(I988
I1188
I1187
tp2342
s(I917
I2093
tp2343
(I917
I2093
Ntp2344
s(I365
I366
tp2345
g1182
s(I2352
I512
tp2346
g1003
s(I720
I2165
tp2347
(I720
I2165
Ntp2348
s(I1080
I1079
tp2349
g969
s(I1490
I1491
tp2350
g791
s(I604
I1772
tp2351
g672
s(I1923
I1924
tp2352
g299
s(I1586
I1985
tp2353
(I1586
I76
I1985
tp2354
s(I75
I336
tp2355
(I74
I336
I75
tp2356
s(I1891
I1890
tp2357
g144
s(I918
I919
tp2358
(I917
I789
I918
tp2359
s(I166
I1160
tp2360
(I166
I1160
Ntp2361
s(I2141
I2129
tp2362
(I871
I2129
I1976
tp2363
s(I2501
I2502
tp2364
g422
s(I703
I1520
tp2365
(I703
I1520
Ntp2366
s(I750
I27
tp2367
(I26
I27
I750
tp2368
s(I954
I1224
tp2369
(I754
I139
I954
tp2370
s(I333
I2215
tp2371
(I333
I1812
I2215
tp2372
s(I1986
I76
tp2373
g2354
s(I2026
I55
tp2374
g1689
s(I1680
I1957
tp2375
(I1680
I1089
I1957
tp2376
s(I2193
I2192
tp2377
g883
s(I464
I728
tp2378
(I464
I484
I728
tp2379
s(I377
I1174
tp2380
(I377
I1174
Ntp2381
s(I2290
I1269
tp2382
g1492
s(I118
I1685
tp2383
(I118
I1685
Ntp2384
s(I1762
I1767
tp2385
g156
s(I1960
I1720
tp2386
(I1719
I520
I1960
tp2387
s(I1271
I2064
tp2388
g2114
s(I1012
I2198
tp2389
g329
s(I1902
I172
tp2390
g676
s(I2324
I2325
tp2391
g1574
s(I1534
I2248
tp2392
g655
s(I1974
I836
tp2393
g352
s(I2188
I2187
tp2394
g485
s(I2429
I2430
tp2395
(I2429
I2430
Ntp2396
s(I691
I692
tp2397
g1799
s(I878
I1428
tp2398
g889
s(I1275
I237
tp2399
(I1274
I237
I1275
tp2400
s(I1383
I1384
tp2401
g1188
s(I1170
I1655
tp2402
g1249
s(I1488
I1489
tp2403
g791
s(I2122
I708
tp2404
g371
s(I20
I2280
tp2405
(I20
I2280
Ntp2406
s(I2332
I2134
tp2407
g1999
s(I59
I166
tp2408
(I59
I166
Ntp2409
s(I2024
I596
tp2410
g601
s(I594
I1200
tp2411
g84
s(I953
I1084
tp2412
g369
s(I962
I1401
tp2413
(I962
I1401
Ntp2414
s(I2357
I939
tp2415
g1068
s(I457
I686
tp2416
g1172
s(I1303
I1304
tp2417
(I1301
I1306
I1302
tp2418
s(I480
I2231
tp2419
g253
s(I813
I2262
tp2420
g632
s(I167
I581
tp2421
(I167
I581
Ntp2422
s(I278
I279
tp2423
g827
s(I1534
I2144
tp2424
(I1534
I2144
Ntp2425
s(I66
I1778
tp2426
g483
s(I1493
I1494
tp2427
g2202
s(I2228
I2061
tp2428
g763
s(I1933
I1934
tp2429
(I1699
I1934
I1933
tp2430
s(I730
I1148
tp2431
g2112
s(I1134
I1135
tp2432
(I1134
I1147
I1135
tp2433
s(I1321
I1322
tp2434
(I1319
I802
I1320
tp2435
s(I631
I2016
tp2436
(I631
I795
I2016
tp2437
s(I14
I1661
tp2438
(I14
I1661
Ntp2439
s(I148
I2280
tp2440
(I148
I2280
Ntp2441
s(I320
I841
tp2442
(I320
I841
Ntp2443
s(I1647
I1683
tp2444
(I1647
I1684
I1683
tp2445
s(I2228
I815
tp2446
g561
s(I1848
I1847
tp2447
g363
s(I2197
I1012
tp2448
g329
s(I1085
I423
tp2449
g140
s(I1255
I1370
tp2450
(I1255
I1370
Ntp2451
s(I263
I264
tp2452
(I263
I266
I264
tp2453
s(I540
I541
tp2454
g84
s(I2320
I2408
tp2455
(I2320
I2408
Ntp2456
s(I1752
I100
tp2457
g844
s(I658
I1255
tp2458
(I658
I1255
Ntp2459
s(I34
I1536
tp2460
(I34
I1536
Ntp2461
s(I1106
I1107
tp2462
g544
s(I914
I604
tp2463
g1016
s(I463
I1430
tp2464
(I463
I1430
Ntp2465
s(I980
I981
tp2466
g693
s(I813
I2238
tp2467
(I813
I2238
Ntp2468
s(I1936
I1678
tp2469
g1703
s(I1842
I181
tp2470
g1096
s(I1199
I1665
tp2471
(I1199
I1665
Ntp2472
s(I496
I1741
tp2473
(I496
I198
I1741
tp2474
s(I908
I1013
tp2475
(I221
I222
I1440
tp2476
s(I1045
I1044
tp2477
g668
s(I1021
I50
tp2478
(I47
I50
I48
tp2479
s(I1894
I225
tp2480
g10
s(I2061
I2060
tp2481
g763
s(I2457
I70
tp2482
g1386
s(I1859
I1717
tp2483
g1082
s(I2461
I662
tp2484
g152
s(I837
I838
tp2485
(I835
I590
I836
tp2486
s(I910
I2177
tp2487
g112
s(I377
I731
tp2488
g2245
s(I2524
I896
tp2489
(I2126
I896
I2524
tp2490
s(I515
I1956
tp2491
g1318
s(I935
I936
tp2492
g64
s(I2574
I2120
tp2493
(I228
I2120
I2574
tp2494
s(I1859
I1858
tp2495
(I1717
I1857
I1859
tp2496
s(I2361
I1716
tp2497
(I242
I1716
I1832
tp2498
s(I617
I2389
tp2499
(I617
I2389
Ntp2500
s(I86
I1178
tp2501
g502
s(I606
I605
tp2502
g1016
s(I58
I546
tp2503
(I58
I546
Ntp2504
s(I1364
I188
tp2505
g310
s(I2050
I2049
tp2506
g74
s(I289
I2109
tp2507
(I289
I2109
Ntp2508
s(I754
I954
tp2509
g2370
s(I819
I820
tp2510
g341
s(I345
I745
tp2511
g1736
s(I1114
I404
tp2512
g1193
s(I880
I881
tp2513
(I880
I881
Ntp2514
s(I2285
I2286
tp2515
(I2068
I2286
I2284
tp2516
s(I17
I251
tp2517
(I17
I251
Ntp2518
s(I146
I1581
tp2519
(I146
I1581
Ntp2520
s(I354
I355
tp2521
(I354
I288
I355
tp2522
s(I187
I1365
tp2523
(I187
I1365
Ntp2524
s(I2101
I2102
tp2525
(I730
I377
I2101
tp2526
s(I2116
I114
tp2527
g369
s(I239
I2573
tp2528
(I239
I2573
Ntp2529
s(I2258
I1876
tp2530
g527
s(I2505
I234
tp2531
g1554
s(I1518
I1235
tp2532
(I1236
I1235
I1518
tp2533
s(I2308
I1111
tp2534
g1266
s(I988
I1377
tp2535
(I988
I1379
I1377
tp2536
s(I1738
I1737
tp2537
g923
s(I1675
I622
tp2538
g2340
s(I885
I1798
tp2539
(I885
I1798
Ntp2540
s(I1843
I618
tp2541
(I617
I534
I1843
tp2542
s(I1351
I1352
tp2543
(I1351
I1352
Ntp2544
s(I451
I2075
tp2545
(I451
I2075
Ntp2546
s(I853
I344
tp2547
g1697
s(I2157
I118
tp2548
g774
s(I55
I2026
tp2549
g601
s(I1063
I1064
tp2550
(I1063
I1064
Ntp2551
s(I1285
I1286
tp2552
g321
s(I1422
I1421
tp2553
(I404
I37
I1424
tp2554
s(I1111
I1934
tp2555
(I1111
I1934
Ntp2556
s(I159
I1293
tp2557
(I159
I351
I1293
tp2558
s(I567
I591
tp2559
(I568
I591
I592
tp2560
s(I2048
I2047
tp2561
g74
s(I917
I1867
tp2562
(I917
I1868
I1867
tp2563
s(I1932
I2269
tp2564
g1144
s(I1564
I410
tp2565
g1678
s(I1864
I2224
tp2566
(I1864
I2224
Ntp2567
s(I168
I762
tp2568
(I168
I169
I762
tp2569
s(I42
I1666
tp2570
(I42
I1666
Ntp2571
s(I1622
I1955
tp2572
(I1622
I1955
Ntp2573
s(I891
I1175
tp2574
(I891
I1175
Ntp2575
s(I47
I525
tp2576
(I47
I525
Ntp2577
s(I1094
I1095
tp2578
g2194
s(I217
I1553
tp2579
(I217
I1553
Ntp2580
s(I124
I144
tp2581
(I124
I144
Ntp2582
s(I2444
I2445
tp2583
g2016
s(I1172
I1218
tp2584
g876
s(I2153
I2156
tp2585
(I2153
I1989
I2156
tp2586
s(I1104
I1117
tp2587
g705
s(I1436
I2422
tp2588
(I1436
I2422
Ntp2589
s(I2461
I1879
tp2590
g175
s(I166
I739
tp2591
(I166
I739
Ntp2592
s(I1701
I1702
tp2593
g963
s(I411
I1515
tp2594
(I411
I1091
I1515
tp2595
s(I2031
I2032
tp2596
g529
s(I1729
I833
tp2597
(I1727
I833
I1728
tp2598
s(I237
I1281
tp2599
(I237
I1281
Ntp2600
s(I573
I1298
tp2601
(I573
I574
I1298
tp2602
s(I1551
I1015
tp2603
g585
s(I7
I442
tp2604
(I7
I442
Ntp2605
s(I1458
I1920
tp2606
g58
s(I869
I870
tp2607
(I869
I870
Ntp2608
s(I135
I1819
tp2609
(I135
I1817
I1819
tp2610
s(I194
I501
tp2611
(I194
I501
Ntp2612
s(I2211
I2210
tp2613
g1286
s(I2213
I1810
tp2614
(I2212
I1810
I2213
tp2615
s(I871
I2407
tp2616
(I871
I2406
I2407
tp2617
s(I147
I1048
tp2618
(I147
I1581
I1048
tp2619
s(I631
I2286
tp2620
(I631
I2286
Ntp2621
s(I1474
I1475
tp2622
g839
s(I2416
I183
tp2623
g632
s(I297
I447
tp2624
(I297
I447
Ntp2625
s(I1055
I1416
tp2626
(I1055
I1416
Ntp2627
s(I745
I344
tp2628
g1736
s(I2516
I1636
tp2629
g680
s(I2323
I2324
tp2630
g1574
s(I1258
I2377
tp2631
(I1258
I2377
Ntp2632
s(I1673
I2111
tp2633
g14
s(I1889
I1890
tp2634
g10
s(I411
I1392
tp2635
g1452
s(I400
I1695
tp2636
(I400
I399
I1695
tp2637
s(I1699
I1933
tp2638
g2430
s(I1037
I1038
tp2639
(I1037
I1038
Ntp2640
s(I1642
I1264
tp2641
(I984
I1264
I1642
tp2642
s(I116
I660
tp2643
(I116
I660
Ntp2644
s(I1296
I1826
tp2645
(I1296
I1826
Ntp2646
s(I1794
I106
tp2647
g1966
s(I1831
I484
tp2648
g2379
s(I2432
I2433
tp2649
(I2432
I2433
Ntp2650
s(I490
I491
tp2651
(I490
I491
Ntp2652
s(I877
I807
tp2653
g306
s(I1144
I1143
tp2654
g2079
s(I65
I1773
tp2655
(I65
I1773
Ntp2656
s(I491
I1176
tp2657
(I491
I1176
Ntp2658
s(I258
I259
tp2659
(I258
I259
Ntp2660
s(I54
I2410
tp2661
(I54
I2410
Ntp2662
s(I2043
I2044
tp2663
g333
s(I900
I901
tp2664
(I900
I901
Ntp2665
s(I500
I1178
tp2666
g640
s(I1652
I1651
tp2667
(I1326
I1650
I1652
tp2668
s(I2508
I2509
tp2669
(I116
I2509
I2508
tp2670
s(I1124
I1125
tp2671
g1568
s(I167
I600
tp2672
(I167
I697
I600
tp2673
s(I46
I113
tp2674
g325
s(I1763
I1099
tp2675
g1358
s(I1611
I983
tp2676
g693
s(I1810
I1811
tp2677
(I1810
I1812
I1811
tp2678
s(I852
I1510
tp2679
(I852
I93
I1510
tp2680
s(I948
I1395
tp2681
g1784
s(I657
I55
tp2682
g1649
s(I2185
I846
tp2683
g638
s(I695
I888
tp2684
(I74
I888
I695
tp2685
s(I1787
I67
tp2686
g445
s(I352
I353
tp2687
(I352
I353
Ntp2688
s(I1715
I1714
tp2689
(I1716
I1714
I2360
tp2690
s(I1649
I1769
tp2691
g2318
s(I1378
I1379
tp2692
g2536
s(I212
I213
tp2693
(I212
I213
Ntp2694
s(I415
I901
tp2695
(I415
I901
Ntp2696
s(I730
I1219
tp2697
(I730
I1219
Ntp2698
s(I957
I958
tp2699
g183
s(I101
I1679
tp2700
g1488
s(I116
I659
tp2701
(I116
I659
Ntp2702
s(I136
I444
tp2703
(I136
I444
Ntp2704
s(I874
I1175
tp2705
(I874
I1175
Ntp2706
s(I1721
I520
tp2707
g2387
s(I1847
I1846
tp2708
g363
s(I892
I1816
tp2709
g1470
s(I1621
I1977
tp2710
g1975
s(I1272
I947
tp2711
g1784
s(I507
I1560
tp2712
(I507
I1371
I1560
tp2713
s(I330
I395
tp2714
(I330
I395
Ntp2715
s(I480
I1999
tp2716
g210
s(I2386
I1858
tp2717
g1082
s(I1839
I2484
tp2718
(I114
I1828
I1839
tp2719
s(I1741
I496
tp2720
(I198
I496
I1741
tp2721
s(I229
I2318
tp2722
(I229
I2318
Ntp2723
s(I996
I997
tp2724
(I996
I997
Ntp2725
s(I111
I1256
tp2726
(I111
I1256
Ntp2727
s(I43
I2331
tp2728
(I43
I1666
I2331
tp2729
s(I1928
I1927
tp2730
g1080
s(I788
I1394
tp2731
(I788
I1394
Ntp2732
s(I2550
I202
tp2733
g126
s(I1515
I1516
tp2734
g2595
s(I1830
I1743
tp2735
(I465
I1743
I1830
tp2736
s(I652
I1205
tp2737
g565
s(I485
I1230
tp2738
g1713
s(I2564
I1703
tp2739
(I524
I1703
I2563
tp2740
s(I1610
I982
tp2741
g693
s(I784
I1029
tp2742
(I784
I1400
I1029
tp2743
s(I1264
I1642
tp2744
(I1264
I984
I1642
tp2745
s(I520
I2295
tp2746
(I520
I2295
Ntp2747
s(I2108
I1757
tp2748
g632
s(I921
I920
tp2749
g1284
s(I1695
I400
tp2750
g2185
s(I616
I1118
tp2751
(I616
I1118
Ntp2752
s(I524
I1412
tp2753
(I524
I1411
I1412
tp2754
s(I2550
I2549
tp2755
g205
s(I984
I1612
tp2756
g831
s(I2466
I2467
tp2757
g403
s(I1231
I1232
tp2758
g662
s(I622
I1675
tp2759
(I622
I130
I1675
tp2760
s(I1502
I322
tp2761
(I320
I322
I1862
tp2762
s(I2378
I436
tp2763
(I212
I436
I2379
tp2764
s(I1392
I863
tp2765
g1452
s(I1635
I1696
tp2766
(I1635
I1696
Ntp2767
s(I1121
I1005
tp2768
g518
s(I1144
I1744
tp2769
g559
s(I169
I1024
tp2770
g1243
s(I607
I913
tp2771
g508
s(I768
I1758
tp2772
(I768
I1758
Ntp2773
s(I1119
I1118
tp2774
g1664
s(I358
I1295
tp2775
(I358
I1295
Ntp2776
s(I2373
I1317
tp2777
(I1316
I1317
I2373
tp2778
s(I2503
I2504
tp2779
g422
s(I757
I756
tp2780
g98
s(I1253
I223
tp2781
g278
s(I314
I315
tp2782
g2054
s(I1642
I984
tp2783
g2745
s(I728
I486
tp2784
g2379
s(I1241
I2297
tp2785
(I1241
I2297
Ntp2786
s(I110
I200
tp2787
g384
s(I232
I2121
tp2788
(I232
I2121
Ntp2789
s(I76
I1279
tp2790
(I76
I1279
Ntp2791
s(I1748
I969
tp2792
(I367
I969
I1748
tp2793
s(I868
I1750
tp2794
(I868
I1750
Ntp2795
s(I920
I919
tp2796
g1284
s(I418
I2530
tp2797
g1294
s(I1351
I1654
tp2798
(I1351
I1654
Ntp2799
s(I1018
I1990
tp2800
(I1018
I1990
Ntp2801
s(I1615
I1614
tp2802
g44
s(I2232
I1801
tp2803
g1476
s(I369
I370
tp2804
(I368
I371
I369
tp2805
s(I411
I2266
tp2806
(I411
I2266
Ntp2807
s(I256
I1653
tp2808
(I255
I257
I256
tp2809
s(I197
I1193
tp2810
(I197
I1193
Ntp2811
s(I1129
I2562
tp2812
g678
s(I10
I249
tp2813
(I10
I249
Ntp2814
s(I1737
I1738
tp2815
(I1152
I379
I1732
tp2816
s(I336
I2073
tp2817
(I336
I2073
Ntp2818
s(I657
I1971
tp2819
(I55
I54
I657
tp2820
s(I306
I307
tp2821
g2054
s(I238
I1429
tp2822
g1794
s(I1146
I1147
tp2823
(I1146
I1147
Ntp2824
s(I167
I829
tp2825
(I167
I493
I829
tp2826
s(I858
I859
tp2827
g1235
s(I408
I2030
tp2828
g529
s(I79
I80
tp2829
(I79
I80
Ntp2830
s(I1554
I2523
tp2831
g555
s(I764
I765
tp2832
(I764
I765
Ntp2833
s(I331
I1376
tp2834
g226
s(I2476
I2477
tp2835
g1509
s(I692
I691
tp2836
(I25
I691
I1880
tp2837
s(I512
I2352
tp2838
g271
s(I634
I1163
tp2839
(I634
I635
I1163
tp2840
s(I1705
I415
tp2841
(I540
I415
I1705
tp2842
s(I325
I922
tp2843
(I325
I922
Ntp2844
s(I2356
I1711
tp2845
g510
s(I183
I1944
tp2846
(I183
I1944
Ntp2847
s(I1074
I1709
tp2848
(I1074
I346
I1709
tp2849
s(I2346
I2347
tp2850
g1003
s(I492
I875
tp2851
(I492
I875
Ntp2852
s(I1793
I215
tp2853
(I106
I214
I1794
tp2854
s(I1277
I1278
tp2855
g2025
s(I754
I765
tp2856
(I754
I765
Ntp2857
s(I507
I1561
tp2858
g1979
s(I217
I806
tp2859
(I217
I806
Ntp2860
s(I1986
I1985
tp2861
(I76
I1586
I1986
tp2862
s(I368
I1340
tp2863
(I368
I1290
I1340
tp2864
s(I933
I934
tp2865
g64
s(I676
I1980
tp2866
(I676
I1980
Ntp2867
s(I1310
I1311
tp2868
g1207
s(I1971
I54
tp2869
g2820
s(I1556
I1555
tp2870
g555
s(I1186
I2021
tp2871
(I1186
I2019
I2021
tp2872
s(I235
I2265
tp2873
g96
s(I839
I1730
tp2874
g42
s(I1265
I1266
tp2875
g1589
s(I257
I1653
tp2876
(I257
I255
I1653
tp2877
s(I423
I1085
tp2878
(I423
I421
I1085
tp2879
s(I533
I1333
tp2880
(I533
I1333
Ntp2881
s(I1600
I1264
tp2882
(I55
I1264
I1760
tp2883
s(I80
I766
tp2884
(I80
I766
Ntp2885
s(I483
I1739
tp2886
(I484
I432
I1229
tp2887
s(I1597
I1227
tp2888
g1344
s(I1224
I2110
tp2889
g2370
s(I1089
I1958
tp2890
g990
s(I1585
I1561
tp2891
(I1562
I507
I1585
tp2892
s(I1250
I1576
tp2893
(I1250
I1576
Ntp2894
s(I2087
I2300
tp2895
(I2087
I2301
I2300
tp2896
s(I2310
I44
tp2897
(I121
I44
I122
tp2898
s(I2549
I108
tp2899
g205
s(I1881
I227
tp2900
g144
s(I41
I1990
tp2901
(I41
I1990
Ntp2902
s(I2102
I2101
tp2903
g2245
s(I711
I712
tp2904
(I709
I713
I710
tp2905
s(I1004
I1167
tp2906
(I1004
I1167
Ntp2907
s(I285
I903
tp2908
(I285
I903
Ntp2909
s(I2006
I2007
tp2910
g2257
s(I238
I1278
tp2911
g1969
s(I1693
I1694
tp2912
(I1693
I1694
Ntp2913
s(I259
I372
tp2914
(I259
I372
Ntp2915
s(I1695
I399
tp2916
g2637
s(I2526
I2525
tp2917
g2191
s(I1403
I173
tp2918
(I1402
I173
I1403
tp2919
s(I484
I1229
tp2920
g2887
s(I2497
I2498
tp2921
g422
s(I2178
I2179
tp2922
g112
s(I982
I1611
tp2923
g693
s(I1754
I1755
tp2924
g2063
s(I148
I1060
tp2925
(I148
I131
I1060
tp2926
s(I1783
I1784
tp2927
g483
s(I518
I5
tp2928
g707
s(I367
I945
tp2929
(I367
I945
Ntp2930
s(I2184
I2185
tp2931
g638
s(I1184
I347
tp2932
g214
s(I1760
I1600
tp2933
g2883
s(I912
I2181
tp2934
g1464
s(I1477
I133
tp2935
g839
s(I192
I1167
tp2936
(I192
I1167
Ntp2937
s(I1778
I66
tp2938
g445
s(I1017
I2309
tp2939
g929
s(I485
I1831
tp2940
g2379
s(I1709
I346
tp2941
g2849
s(I1855
I271
tp2942
(I435
I271
I1856
tp2943
s(I592
I567
tp2944
g2560
s(I237
I1275
tp2945
(I237
I1274
I1275
tp2946
s(I1513
I1514
tp2947
(I159
I620
I1513
tp2948
s(I1569
I616
tp2949
g1419
s(I165
I2319
tp2950
(I165
I2319
Ntp2951
s(I689
I729
tp2952
g191
s(I139
I1759
tp2953
g26
s(I1298
I574
tp2954
g2602
s(I106
I1667
tp2955
g399
s(I1080
I2399
tp2956
(I625
I624
I1078
tp2957
s(I1322
I802
tp2958
g2435
s(I60
I739
tp2959
(I60
I739
Ntp2960
s(I365
I193
tp2961
g597
s(I293
I292
tp2962
g2476
s(I1577
I876
tp2963
(I1222
I876
I1577
tp2964
s(I850
I1059
tp2965
(I850
I1059
Ntp2966
s(I2471
I1315
tp2967
(I1314
I1315
I2471
tp2968
s(I1868
I2093
tp2969
(I1868
I2093
Ntp2970
s(I247
I374
tp2971
(I247
I374
Ntp2972
s(I1606
I118
tp2973
g2
s(I1937
I1662
tp2974
(I611
I1662
I1937
tp2975
s(I2333
I2133
tp2976
g354
s(I1266
I1265
tp2977
(I612
I1265
I1266
tp2978
s(I371
I372
tp2979
(I371
I372
Ntp2980
s(I2138
I2279
tp2981
(I2138
I2279
Ntp2982
s(I576
I575
tp2983
g1867
s(I260
I373
tp2984
(I260
I262
I373
tp2985
s(I97
I1853
tp2986
(I97
I1853
Ntp2987
s(I2527
I2526
tp2988
g2191
s(I617
I851
tp2989
(I617
I195
I851
tp2990
s(I63
I64
tp2991
g2130
s(I245
I1133
tp2992
(I245
I1134
I1133
tp2993
s(I2102
I2103
tp2994
g2526
s(I1409
I1410
tp2995
(I1409
I1410
Ntp2996
s(I1190
I1860
tp2997
g1237
s(I2198
I2199
tp2998
g329
s(I698
I699
tp2999
(I698
I699
Ntp3000
s(I808
I1644
tp3001
(I808
I356
I1644
tp3002
s(I799
I800
tp3003
(I799
I800
Ntp3004
s(I2096
I168
tp3005
(I167
I168
I2096
tp3006
s(I1720
I1721
tp3007
g2387
s(I2300
I2301
tp3008
g2896
s(I1703
I2565
tp3009
(I1703
I2405
I2565
tp3010
s(I1560
I1559
tp3011
g2713
s(I2196
I482
tp3012
g883
s(I882
I456
tp3013
(I455
I456
I687
tp3014
s(I1627
I1628
tp3015
g28
s(I1657
I2409
tp3016
(I1657
I2409
Ntp3017
s(I1898
I1897
tp3018
g1133
s(I1949
I1950
tp3019
(I1157
I1950
I1949
tp3020
s(I194
I435
tp3021
(I194
I435
Ntp3022
s(I1784
I1783
tp3023
g445
s(I1427
I1542
tp3024
(I1427
I1542
Ntp3025
s(I605
I606
tp3026
g508
s(I103
I1979
tp3027
(I103
I1459
I1979
tp3028
s(I2215
I333
tp3029
g615
s(I54
I1040
tp3030
(I54
I1040
Ntp3031
s(I242
I561
tp3032
(I242
I561
Ntp3033
s(I1274
I1951
tp3034
(I1274
I1951
Ntp3035
s(I800
I1636
tp3036
(I800
I1636
Ntp3037
s(I283
I1668
tp3038
g1372
s(I1387
I2011
tp3039
g536
s(I100
I1752
tp3040
g1643
s(I159
I1332
tp3041
g914
s(I2455
I2456
tp3042
g1386
s(I2159
I78
tp3043
(I76
I78
I1677
tp3044
s(I1728
I1729
tp3045
g2598
s(I1385
I1386
tp3046
g1188
s(I1677
I76
tp3047
g1018
s(I154
I294
tp3048
g1520
s(I614
I615
tp3049
g961
s(I2431
I2354
tp3050
(I1113
I216
I2431
tp3051
s(I1293
I1294
tp3052
g2558
s(I109
I202
tp3053
g205
s(I1900
I1991
tp3054
g1577
s(I1589
I2107
tp3055
(I1589
I2107
Ntp3056
s(I1913
I1914
tp3057
g746
s(I1908
I1909
tp3058
g746
s(I668
I2292
tp3059
(I668
I153
I2292
tp3060
s(I549
I1483
tp3061
(I549
I1483
Ntp3062
s(I1788
I1787
tp3063
g445
s(I2459
I69
tp3064
g1386
s(I1650
I1651
tp3065
g274
s(I1425
I763
tp3066
g1559
s(I1993
I1994
tp3067
g1577
s(I310
I311
tp3068
g2054
s(I1340
I1291
tp3069
g2864
s(I1197
I2340
tp3070
g860
s(I654
I2098
tp3071
g1074
s(I1953
I1592
tp3072
(I1590
I1592
I1953
tp3073
s(I840
I841
tp3074
g42
s(I2189
I2140
tp3075
(I842
I1900
I2187
tp3076
s(I2210
I2211
tp3077
g634
s(I2513
I2514
tp3078
(I2513
I2514
Ntp3079
s(I386
I2425
tp3080
(I386
I2425
Ntp3081
s(I1639
I2368
tp3082
(I1622
I1436
I1639
tp3083
s(I71
I2454
tp3084
(I71
I2523
I2454
tp3085
s(I68
I2315
tp3086
g569
s(I727
I1759
tp3087
g4
s(I928
I929
tp3088
g405
s(I2106
I2261
tp3089
g207
s(I1762
I1286
tp3090
g265
s(I2101
I730
tp3091
g2245
s(I1452
I1453
tp3092
(I1452
I1453
Ntp3093
s(I630
I772
tp3094
(I630
I772
Ntp3095
s(I308
I309
tp3096
g2054
s(I1651
I1652
tp3097
g274
s(I1785
I1784
tp3098
g445
s(I404
I609
tp3099
(I404
I609
Ntp3100
s(I2473
I2492
tp3101
(I2473
I101
I2492
tp3102
s(I1546
I1545
tp3103
(I681
I1545
I1550
tp3104
s(I367
I1660
tp3105
g1821
s(I1572
I1573
tp3106
g1290
s(I284
I1667
tp3107
g1372
s(I160
I650
tp3108
(I160
I650
Ntp3109
s(I1440
I293
tp3110
g2476
s(I2354
I2431
tp3111
g251
s(I1046
I28
tp3112
g230
s(I2063
I1169
tp3113
g1033
s(I2203
I2204
tp3114
(I2201
I2204
I2202
tp3115
s(I1157
I1949
tp3116
g3020
s(I1322
I1321
tp3117
g1113
s(I1436
I1637
tp3118
g222
s(I1739
I432
tp3119
g2887
s(I2209
I2208
tp3120
g1286
s(I2333
I2334
tp3121
g1999
s(I1870
I1796
tp3122
g90
s(I964
I1007
tp3123
(I964
I1007
Ntp3124
s(I286
I1570
tp3125
(I286
I1570
Ntp3126
s(I1838
I1837
tp3127
(I1828
I1837
I1838
tp3128
s(I1735
I1221
tp3129
g923
s(I646
I1687
tp3130
(I646
I1687
Ntp3131
s(I49
I48
tp3132
g2263
s(I769
I655
tp3133
(I654
I655
I769
tp3134
s(I1139
I1140
tp3135
g2324
s(I830
I1369
tp3136
(I830
I1368
I1369
tp3137
s(I1246
I1247
tp3138
(I322
I1247
I323
tp3139
s(I163
I56
tp3140
g30
s(I208
I1034
tp3141
(I208
I1034
Ntp3142
s(I55
I2545
tp3143
(I55
I412
I2545
tp3144
s(I885
I886
tp3145
(I885
I886
Ntp3146
s(I2543
I2544
tp3147
g1474
s(I728
I464
tp3148
g1713
s(I612
I1662
tp3149
(I612
I1662
Ntp3150
s(I584
I1065
tp3151
(I584
I1066
I1065
tp3152
s(I627
I1218
tp3153
(I222
I626
I627
tp3154
s(I2454
I2453
tp3155
g3085
s(I2352
I2351
tp3156
g271
s(I2334
I2335
tp3157
g1999
s(I7
I8
tp3158
(I7
I8
Ntp3159
s(I237
I1156
tp3160
g1358
s(I1041
I1852
tp3161
(I998
I764
I1041
tp3162
s(I89
I193
tp3163
(I89
I193
Ntp3164
s(I2360
I1715
tp3165
g2690
s(I2538
I2539
tp3166
g167
s(I1003
I1390
tp3167
(I1003
I1390
Ntp3168
s(I384
I1967
tp3169
(I384
I1966
I1967
tp3170
s(I1676
I621
tp3171
(I620
I621
I1676
tp3172
s(I2007
I2006
tp3173
g536
s(I206
I295
tp3174
(I206
I207
I295
tp3175
s(I1218
I1172
tp3176
g3154
s(I195
I2389
tp3177
(I195
I2389
Ntp3178
s(I264
I265
tp3179
g2453
s(I118
I888
tp3180
(I118
I888
Ntp3181
s(I1282
I1174
tp3182
g571
s(I101
I2490
tp3183
g730
s(I1745
I404
tp3184
(I1227
I404
I1745
tp3185
s(I76
I77
tp3186
(I76
I77
Ntp3187
s(I1748
I367
tp3188
(I969
I367
I1748
tp3189
s(I1864
I2480
tp3190
(I1864
I1863
I2480
tp3191
s(I183
I504
tp3192
(I183
I504
Ntp3193
s(I2294
I672
tp3194
g1855
s(I1325
I1483
tp3195
(I1325
I1483
Ntp3196
s(I1473
I1474
tp3197
g839
s(I2357
I2356
tp3198
g510
s(I618
I534
tp3199
g2542
s(I1042
I195
tp3200
g2213
s(I302
I303
tp3201
g2054
s(I1872
I1873
tp3202
(I1872
I1873
Ntp3203
s(I121
I2066
tp3204
(I121
I2065
I2066
tp3205
s(I13
I1177
tp3206
(I12
I1177
I13
tp3207
s(I2427
I1091
tp3208
g2595
s(I1899
I1898
tp3209
g1133
s(I2530
I266
tp3210
g1294
s(I42
I1159
tp3211
(I42
I1159
Ntp3212
s(I239
I2205
tp3213
(I239
I2205
Ntp3214
s(I1908
I1907
tp3215
g58
s(I2340
I2339
tp3216
g860
s(I1331
I1280
tp3217
(I115
I2143
I1331
tp3218
s(I165
I1032
tp3219
(I165
I1032
Ntp3220
s(I2436
I2437
tp3221
g1024
s(I2270
I1932
tp3222
g1144
s(I685
I1292
tp3223
(I685
I1292
Ntp3224
s(I97
I1292
tp3225
(I97
I1292
Ntp3226
s(I1408
I1409
tp3227
(I1408
I1409
Ntp3228
s(I2565
I1703
tp3229
g599
s(I1064
I2015
tp3230
(I1064
I2015
Ntp3231
s(I2181
I911
tp3232
g1464
s(I1397
I266
tp3233
(I1396
I266
I1397
tp3234
s(I1608
I1607
tp3235
g2
s(I1425
I2029
tp3236
g1058
s(I520
I1702
tp3237
g487
s(I2175
I2174
tp3238
g1740
s(I1683
I1684
tp3239
g2445
s(I838
I837
tp3240
g352
s(I417
I1535
tp3241
g1294
s(I1479
I1480
tp3242
(I1479
I1480
Ntp3243
s(I681
I1550
tp3244
g3104
s(I2496
I2497
tp3245
g422
s(I298
I299
tp3246
(I298
I299
Ntp3247
s(I205
I718
tp3248
g2046
s(I2311
I2312
tp3249
(I1840
I69
I2311
tp3250
s(I496
I1576
tp3251
(I496
I1576
Ntp3252
s(I1902
I1191
tp3253
g1237
s(I1496
I1497
tp3254
g2202
s(I1386
I2392
tp3255
(I1386
I2392
Ntp3256
s(I50
I1021
tp3257
g2263
s(I180
I828
tp3258
(I180
I1685
I828
tp3259
s(I177
I1686
tp3260
(I177
I1686
Ntp3261
s(I1008
I1007
tp3262
g1142
s(I1105
I407
tp3263
g1964
s(I1
I1341
tp3264
(I1
I1341
Ntp3265
s(I1550
I681
tp3266
g636
s(I693
I499
tp3267
(I498
I93
I693
tp3268
s(I187
I188
tp3269
(I187
I188
Ntp3270
s(I733
I1805
tp3271
g625
s(I2467
I2466
tp3272
g36
s(I1066
I1579
tp3273
(I1066
I1579
Ntp3274
s(I670
I2293
tp3275
g793
s(I1290
I1339
tp3276
g1707
s(I1102
I452
tp3277
(I453
I452
I700
tp3278
s(I2185
I2184
tp3279
g138
s(I1379
I1380
tp3280
g80
s(I1690
I1691
tp3281
(I1690
I1691
Ntp3282
s(I1202
I1201
tp3283
g1796
s(I198
I1741
tp3284
g2721
s(I412
I2543
tp3285
g1474
s(I1809
I643
tp3286
g1178
s(I1386
I2004
tp3287
g2307
s(I887
I2298
tp3288
g2313
s(I1864
I2017
tp3289
g380
s(I1850
I130
tp3290
g1497
s(I255
I256
tp3291
g2809
s(I1637
I1437
tp3292
g222
s(I1104
I1479
tp3293
(I1104
I1479
Ntp3294
s(I536
I434
tp3295
(I268
I435
I536
tp3296
s(I719
I204
tp3297
g339
s(I2293
I670
tp3298
g1855
s(I405
I404
tp3299
g1788
s(I191
I2107
tp3300
(I191
I2107
Ntp3301
s(I979
I980
tp3302
g693
s(I1963
I2076
tp3303
(I1963
I2076
Ntp3304
s(I383
I1498
tp3305
(I383
I1498
Ntp3306
s(I1280
I2143
tp3307
g3218
s(I1912
I1913
tp3308
g746
s(I1513
I159
tp3309
(I620
I159
I1514
tp3310
s(I798
I1636
tp3311
(I798
I1636
Ntp3312
s(I2353
I1113
tp3313
(I1712
I1113
I2353
tp3314
s(I303
I304
tp3315
g2054
s(I215
I214
tp3316
g2854
s(I180
I827
tp3317
g1912
s(I1003
I1389
tp3318
(I1003
I1389
Ntp3319
s(I116
I2508
tp3320
g2670
s(I2192
I2193
tp3321
g329
s(I556
I1165
tp3322
(I378
I1165
I1463
tp3323
s(I907
I220
tp3324
g1356
s(I446
I296
tp3325
(I297
I296
I446
tp3326
s(I1974
I837
tp3327
g2486
s(I971
I1259
tp3328
(I971
I1259
Ntp3329
s(I671
I2294
tp3330
g1855
s(I1100
I1101
tp3331
(I1100
I1101
Ntp3332
s(I2022
I2023
tp3333
(I1186
I596
I2022
tp3334
s(I171
I172
tp3335
g1237
s(I546
I826
tp3336
(I546
I180
I826
tp3337
s(I1441
I1442
tp3338
g2301
s(I1800
I1801
tp3339
(I1800
I1801
Ntp3340
s(I2016
I795
tp3341
g2437
s(I834
I835
tp3342
(I833
I835
I834
tp3343
s(I1158
I1245
tp3344
(I1158
I1245
Ntp3345
s(I1837
I1838
tp3346
g1158
s(I1071
I1072
tp3347
(I1071
I437
I1072
tp3348
s(I1560
I507
tp3349
(I1371
I507
I1559
tp3350
s(I2110
I1224
tp3351
g1817
s(I1451
I2166
tp3352
(I1451
I1449
I2166
tp3353
s(I231
I2084
tp3354
g2176
s(I1918
I1457
tp3355
g58
s(I190
I1802
tp3356
(I190
I1802
Ntp3357
s(I263
I972
tp3358
g1724
s(I1535
I418
tp3359
g1294
s(I1356
I509
tp3360
(I155
I207
I1356
tp3361
s(I453
I700
tp3362
g3278
s(I1671
I1672
tp3363
(I1670
I1672
I1671
tp3364
s(I22
I853
tp3365
g1697
s(I851
I617
tp3366
g1715
s(I335
I696
tp3367
g424
s(I1225
I961
tp3368
g689
s(I624
I2399
tp3369
g969
s(I217
I1170
tp3370
(I217
I1170
Ntp3371
s(I1653
I257
tp3372
g2809
s(I380
I23
tp3373
(I22
I381
I380
tp3374
s(I1087
I1808
tp3375
(I738
I1963
I1087
tp3376
s(I1191
I1902
tp3377
g676
s(I632
I2287
tp3378
(I632
I2286
I2287
tp3379
s(I1384
I1385
tp3380
g1188
s(I169
I368
tp3381
(I169
I368
Ntp3382
s(I2005
I1386
tp3383
g536
s(I68
I2390
tp3384
(I68
I2390
Ntp3385
s(I1647
I1682
tp3386
(I1647
I1680
I1682
tp3387
s(I324
I1247
tp3388
(I324
I1247
Ntp3389
s(I1159
I1666
tp3390
(I1159
I1666
Ntp3391
s(I1
I2
tp3392
(I1
I2
Ntp3393
s(I1657
I1658
tp3394
g1160
s(I2477
I2476
tp3395
g1881
s(I80
I1200
tp3396
g390
s(I1606
I1607
tp3397
g2005
s(I891
I1176
tp3398
(I891
I1176
Ntp3399
s(I482
I2196
tp3400
g329
s(I568
I569
tp3401
(I568
I569
Ntp3402
s(I914
I605
tp3403
g508
s(I2525
I2526
tp3404
g1738
s(I1030
I1400
tp3405
(I1030
I1400
Ntp3406
s(I183
I2171
tp3407
(I183
I2171
Ntp3408
s(I1775
I1776
tp3409
g483
s(I1514
I1513
tp3410
g3310
s(I43
I379
tp3411
(I43
I379
Ntp3412
s(I1021
I49
tp3413
g2263
s(I289
I290
tp3414
g1862
s(I1767
I1664
tp3415
g156
s(I55
I657
tp3416
g2820
s(I2405
I2406
tp3417
(I2405
I2406
Ntp3418
s(I643
I2282
tp3419
g2149
s(I1152
I1732
tp3420
g2816
s(I2407
I871
tp3421
(I2406
I871
I2407
tp3422
s(I230
I1214
tp3423
(I230
I1214
Ntp3424
s(I1777
I66
tp3425
g483
s(I1533
I519
tp3426
g655
s(I434
I435
tp3427
g3296
s(I1126
I1127
tp3428
(I1126
I1127
Ntp3429
s(I54
I508
tp3430
(I54
I508
Ntp3431
s(I749
I6
tp3432
(I19
I6
I749
tp3433
s(I1558
I439
tp3434
g555
s(I2495
I2494
tp3435
g833
s(I859
I860
tp3436
g1235
s(I236
I2448
tp3437
g96
s(I598
I1251
tp3438
g2136
s(I1145
I2394
tp3439
g2079
s(I1077
I559
tp3440
g1782
s(I230
I231
tp3441
(I230
I231
Ntp3442
s(I340
I341
tp3443
(I340
I855
I341
tp3444
s(I2445
I2446
tp3445
g2016
s(I1008
I734
tp3446
(I1007
I734
I1008
tp3447
s(I509
I1356
tp3448
g980
s(I1364
I189
tp3449
(I188
I189
I1364
tp3450
s(I1812
I1813
tp3451
(I1812
I1813
Ntp3452
s(I152
I771
tp3453
(I152
I771
Ntp3454
s(I463
I957
tp3455
g183
s(I2564
I2563
tp3456
(I1703
I524
I2564
tp3457
s(I1449
I1450
tp3458
(I1449
I1451
I1450
tp3459
s(I732
I1805
tp3460
g583
s(I1918
I1919
tp3461
g746
s(I2484
I1839
tp3462
g441
s(I1209
I1411
tp3463
(I1209
I1411
Ntp3464
s(I1009
I1713
tp3465
(I1009
I1713
Ntp3466
s(I540
I1810
tp3467
(I540
I1810
Ntp3468
s(I149
I254
tp3469
g1338
s(I426
I427
tp3470
g810
s(I1679
I1522
tp3471
g1488
s(I528
I1542
tp3472
(I528
I1542
Ntp3473
s(I356
I357
tp3474
(I356
I357
Ntp3475
s(I1189
I903
tp3476
(I155
I903
I1189
tp3477
s(I124
I1123
tp3478
(I124
I1123
Ntp3479
s(I1982
I1628
tp3480
g1744
s(I1357
I509
tp3481
g980
s(I2528
I2527
tp3482
g2191
s(I241
I2327
tp3483
(I241
I1620
I2327
tp3484
s(I1590
I1591
tp3485
(I1590
I1592
I1591
tp3486
s(I1355
I29
tp3487
(I28
I31
I1355
tp3488
s(I1465
I1161
tp3489
(I160
I1161
I1465
tp3490
s(I144
I145
tp3491
(I144
I145
Ntp3492
s(I2347
I2346
tp3493
g271
s(I187
I2113
tp3494
g284
s(I118
I2157
tp3495
g1379
s(I1631
I1947
tp3496
g1744
s(I1492
I1493
tp3497
g2202
s(I1067
I1068
tp3498
g2060
s(I1089
I2512
tp3499
(I1089
I2512
Ntp3500
s(I871
I1976
tp3501
g2363
s(I192
I1063
tp3502
(I192
I1063
Ntp3503
s(I1039
I1249
tp3504
(I1039
I1249
Ntp3505
s(I1817
I1818
tp3506
g579
s(I868
I869
tp3507
(I868
I869
Ntp3508
s(I195
I1042
tp3509
(I195
I169
I1042
tp3510
s(I1697
I2515
tp3511
g680
s(I1732
I1733
tp3512
g2816
s(I774
I773
tp3513
(I88
I773
I774
tp3514
s(I1564
I411
tp3515
g605
s(I1857
I2400
tp3516
(I1857
I2130
I2400
tp3517
s(I705
I555
tp3518
g1020
s(I1307
I1308
tp3519
g1207
s(I1317
I2115
tp3520
(I1317
I2115
Ntp3521
s(I896
I897
tp3522
(I896
I897
Ntp3523
s(I287
I1478
tp3524
(I287
I1478
Ntp3525
s(I1262
I170
tp3526
g1237
s(I1005
I1122
tp3527
(I1005
I1123
I1122
tp3528
s(I1561
I1585
tp3529
g1979
s(I1414
I1990
tp3530
(I1414
I1990
Ntp3531
s(I1565
I1566
tp3532
g1678
s(I1166
I1167
tp3533
(I1166
I1167
Ntp3534
s(I1780
I1779
tp3535
g445
s(I15
I809
tp3536
g1299
s(I217
I994
tp3537
(I217
I1297
I994
tp3538
s(I1315
I2471
tp3539
(I1315
I1314
I2471
tp3540
s(I223
I2332
tp3541
g1999
s(I755
I756
tp3542
g94
s(I771
I2095
tp3543
(I771
I2095
Ntp3544
s(I411
I1761
tp3545
(I411
I1761
Ntp3546
s(I807
I890
tp3547
(I807
I890
Ntp3548
s(I1932
I2270
tp3549
g473
s(I483
I1229
tp3550
(I432
I484
I1739
tp3551
s(I1507
I1508
tp3552
g1080
s(I1852
I764
tp3553
g3162
s(I551
I402
tp3554
g1292
s(I330
I786
tp3555
(I330
I786
Ntp3556
s(I1627
I1863
tp3557
(I1627
I1863
Ntp3558
s(I1456
I1915
tp3559
g58
s(I54
I2482
tp3560
(I54
I2482
Ntp3561
s(I297
I446
tp3562
g3326
s(I1089
I2473
tp3563
(I1089
I2473
Ntp3564
s(I2030
I2031
tp3565
g529
s(I1590
I1953
tp3566
g3073
s(I2575
I2576
tp3567
g2155
s(I2023
I2022
tp3568
g261
s(I130
I1850
tp3569
g363
s(I2223
I2316
tp3570
(I2223
I1104
I2316
tp3571
s(I493
I727
tp3572
(I493
I727
Ntp3573
s(I1218
I627
tp3574
g876
s(I1620
I2326
tp3575
g292
s(I704
I468
tp3576
g889
s(I114
I1839
tp3577
g2719
s(I710
I2268
tp3578
g2905
s(I286
I904
tp3579
(I286
I904
Ntp3580
s(I1096
I1097
tp3581
g2194
s(I593
I2168
tp3582
(I593
I2168
Ntp3583
s(I1146
I2302
tp3584
(I1146
I2302
Ntp3585
s(I1659
I1956
tp3586
g869
s(I131
I253
tp3587
(I131
I253
Ntp3588
s(I222
I627
tp3589
g3154
s(I79
I723
tp3590
(I79
I723
Ntp3591
s(I1013
I908
tp3592
g22
s(I1130
I2226
tp3593
(I1130
I1978
I2226
tp3594
s(I429
I1333
tp3595
(I429
I1333
Ntp3596
s(I289
I2239
tp3597
(I289
I2239
Ntp3598
s(I2190
I416
tp3599
g394
s(I529
I1542
tp3600
(I529
I1542
Ntp3601
s(I588
I589
tp3602
g1591
s(I2527
I2528
tp3603
g1738
s(I1123
I1124
tp3604
(I1123
I1124
Ntp3605
s(I1075
I379
tp3606
(I378
I379
I1075
tp3607
s(I1773
I2535
tp3608
(I1773
I2536
I2535
tp3609
s(I2013
I2014
tp3610
(I1387
I2014
I2012
tp3611
s(I74
I695
tp3612
g2685
s(I700
I583
tp3613
g3278
s(I1127
I1128
tp3614
g678
s(I119
I787
tp3615
(I119
I787
Ntp3616
s(I2565
I2405
tp3617
g3010
s(I969
I1748
tp3618
g3189
s(I2500
I2501
tp3619
g422
s(I720
I1512
tp3620
(I720
I159
I1512
tp3621
s(I236
I889
tp3622
(I236
I1157
I889
tp3623
s(I1808
I1963
tp3624
g3376
s(I1717
I1859
tp3625
g2496
s(I333
I2494
tp3626
g422
s(I562
I563
tp3627
g2275
s(I118
I648
tp3628
(I118
I648
Ntp3629
s(I1537
I1404
tp3630
g780
s(I1936
I1003
tp3631
(I1678
I1003
I1936
tp3632
s(I33
I701
tp3633
g666
s(I1928
I1508
tp3634
g607
s(I1406
I523
tp3635
g1106
s(I41
I96
tp3636
(I41
I94
I96
tp3637
s(I151
I255
tp3638
(I151
I255
Ntp3639
s(I1685
I2080
tp3640
(I1685
I2080
Ntp3641
s(I2249
I2404
tp3642
g1462
s(I1100
I1961
tp3643
(I1100
I1961
Ntp3644
s(I1369
I1368
tp3645
g3137
s(I1145
I2426
tp3646
(I1145
I2426
Ntp3647
s(I183
I1532
tp3648
(I183
I1532
Ntp3649
s(I2180
I2179
tp3650
g1464
s(I42
I1626
tp3651
(I42
I1626
Ntp3652
s(I942
I916
tp3653
g672
s(I1725
I2447
tp3654
(I1725
I2447
Ntp3655
s(I1989
I2434
tp3656
(I1989
I2434
Ntp3657
s(I1371
I1559
tp3658
g3350
s(I803
I802
tp3659
(I804
I802
I2104
tp3660
s(I74
I75
tp3661
g2356
s(I1109
I1296
tp3662
(I78
I1296
I1109
tp3663
s(I1195
I1927
tp3664
g607
s(I1789
I1790
tp3665
g483
s(I1399
I267
tp3666
g771
s(I223
I1253
tp3667
(I223
I709
I1253
tp3668
s(I943
I1088
tp3669
g1255
s(I82
I580
tp3670
(I82
I599
I580
tp3671
s(I1287
I1664
tp3672
g265
s(I1
I444
tp3673
(I1
I444
Ntp3674
s(I1528
I1529
tp3675
(I1526
I2246
I1527
tp3676
s(I1418
I1419
tp3677
(I38
I1419
I1418
tp3678
s(I721
I720
tp3679
g2318
s(I1254
I506
tp3680
g2132
s(I351
I352
tp3681
(I351
I352
Ntp3682
s(I1919
I1918
tp3683
g58
s(I79
I474
tp3684
(I79
I474
Ntp3685
s(I1978
I2226
tp3686
(I1978
I1130
I2226
tp3687
s(I447
I971
tp3688
(I447
I971
Ntp3689
s(I1421
I1420
tp3690
g2554
s(I1600
I1760
tp3691
g106
s(I2007
I2008
tp3692
g2257
s(I54
I1617
tp3693
g44
s(I58
I694
tp3694
g30
s(I2451
I2523
tp3695
g3085
s(I2201
I2202
tp3696
g3115
s(I730
I2101
tp3697
g2526
s(I580
I599
tp3698
g3671
s(I1937
I611
tp3699
(I1662
I611
I1937
tp3700
s(I2136
I2137
tp3701
(I2136
I514
I2137
tp3702
s(I1380
I1381
tp3703
g80
s(I34
I517
tp3704
(I34
I517
Ntp3705
s(I1078
I625
tp3706
g969
s(I1450
I1449
tp3707
g3353
s(I79
I1307
tp3708
(I79
I1307
Ntp3709
s(I1041
I998
tp3710
g148
s(I2130
I2400
tp3711
(I2130
I1857
I2400
tp3712
s(I157
I158
tp3713
g1537
s(I450
I1342
tp3714
(I450
I1342
Ntp3715
s(I379
I1075
tp3716
(I379
I378
I1075
tp3717
s(I18
I17
tp3718
g411
s(I1565
I410
tp3719
g605
s(I1395
I1272
tp3720
g1784
s(I386
I387
tp3721
(I386
I387
Ntp3722
s(I80
I474
tp3723
(I80
I474
Ntp3724
s(I2010
I2011
tp3725
g2257
s(I1935
I1934
tp3726
g551
s(I363
I2073
tp3727
(I363
I2073
Ntp3728
s(I197
I1250
tp3729
(I197
I1250
Ntp3730
s(I1300
I443
tp3731
g1641
s(I68
I1792
tp3732
g445
s(I2327
I1620
tp3733
g3484
s(I76
I1677
tp3734
g3044
s(I981
I1609
tp3735
g693
s(I1502
I1415
tp3736
g674
s(I743
I742
tp3737
g1512
s(I1865
I2460
tp3738
g2002
s(I198
I724
tp3739
(I198
I724
Ntp3740
s(I330
I1179
tp3741
(I330
I1179
Ntp3742
s(I1842
I1685
tp3743
(I181
I1685
I1842
tp3744
s(I786
I1179
tp3745
(I786
I1179
Ntp3746
s(I2563
I2564
tp3747
g2740
s(I1632
I1954
tp3748
(I1632
I1954
Ntp3749
s(I944
I1179
tp3750
(I944
I1179
Ntp3751
s(I1481
I493
tp3752
g2826
s(I1559
I1560
tp3753
g3350
s(I1135
I1147
tp3754
g2433
s(I668
I970
tp3755
g955
s(I368
I382
tp3756
(I368
I382
Ntp3757
s(I1129
I1128
tp3758
g664
s(I2036
I2037
tp3759
g529
s(I1350
I1438
tp3760
(I1350
I1438
Ntp3761
s(I1703
I2564
tp3762
g3457
s(I1802
I2263
tp3763
(I1802
I2263
Ntp3764
s(I1204
I652
tp3765
g726
s(I361
I1343
tp3766
(I361
I1579
I1343
tp3767
s(I613
I2231
tp3768
g210
s(I2495
I2496
tp3769
g422
s(I1437
I1637
tp3770
g3083
s(I246
I375
tp3771
(I246
I375
Ntp3772
s(I224
I572
tp3773
(I224
I223
I572
tp3774
s(I1742
I1743
tp3775
(I26
I1743
I1742
tp3776
s(I2114
I624
tp3777
g348
s(I120
I787
tp3778
(I120
I787
Ntp3779
s(I2000
I2559
tp3780
g738
s(I159
I1513
tp3781
g2948
s(I98
I99
tp3782
(I98
I99
Ntp3783
s(I1229
I484
tp3784
g3551
s(I769
I654
tp3785
(I655
I654
I769
tp3786
s(I2009
I2010
tp3787
g2257
s(I2044
I2045
tp3788
g333
s(I1415
I1502
tp3789
g2762
s(I238
I2099
tp3790
(I238
I1271
I2099
tp3791
s(I1884
I1883
tp3792
g144
s(I2137
I514
tp3793
g3702
s(I1851
I130
tp3794
g508
s(I2440
I2441
tp3795
g1944
s(I2535
I2536
tp3796
g3609
s(I675
I1674
tp3797
g1269
s(I26
I1742
tp3798
g3776
s(I443
I1300
tp3799
g2102
s(I420
I2067
tp3800
(I420
I2067
Ntp3801
s(I2289
I1157
tp3802
g3623
s(I1885
I1886
tp3803
g10
s(I804
I2104
tp3804
g3660
s(I452
I1102
tp3805
(I452
I453
I1102
tp3806
s(I782
I1030
tp3807
(I782
I1030
Ntp3808
s(I97
I469
tp3809
(I97
I469
Ntp3810
s(I458
I1173
tp3811
g1259
s(I2222
I2159
tp3812
g3044
s(I1291
I1339
tp3813
g2864
s(I1736
I1737
tp3814
g2816
s(I99
I1181
tp3815
(I99
I1181
Ntp3816
s(I1527
I1528
tp3817
g3676
s(I355
I288
tp3818
g2522
s(I2270
I2271
tp3819
g473
s(I2017
I2018
tp3820
g380
s(I2120
I2574
tp3821
(I2120
I228
I2574
tp3822
s(I2202
I2203
tp3823
g3115
s(I1370
I1371
tp3824
(I1370
I1371
Ntp3825
s(I698
I1050
tp3826
(I698
I1050
Ntp3827
s(I21
I22
tp3828
g1764
s(I615
I210
tp3829
g961
s(I2174
I124
tp3830
g1740
s(I1153
I136
tp3831
(I1152
I136
I1834
tp3832
s(I418
I1535
tp3833
g394
s(I511
I1145
tp3834
(I511
I1145
Ntp3835
s(I1778
I1779
tp3836
g483
s(I346
I1709
tp3837
g1942
s(I2155
I2154
tp3838
(I841
I2153
I2155
tp3839
s(I694
I58
tp3840
g469
s(I2282
I643
tp3841
(I642
I643
I2282
tp3842
s(I662
I2462
tp3843
(I662
I2462
Ntp3844
s(I11
I746
tp3845
(I11
I746
Ntp3846
s(I2068
I2284
tp3847
g2516
s(I1763
I1155
tp3848
g795
s(I363
I1086
tp3849
(I363
I1086
Ntp3850
s(I160
I1465
tp3851
g3490
s(I2367
I2368
tp3852
g222
s(I634
I1162
tp3853
(I634
I1162
Ntp3854
s(I2184
I2183
tp3855
g138
s(I555
I3
tp3856
g1020
s(I1024
I169
tp3857
g701
s(I2194
I2195
tp3858
g329
s(I191
I2083
tp3859
(I191
I2083
Ntp3860
s(I1757
I2244
tp3861
g632
s(I127
I128
tp3862
g907
s(I970
I668
tp3863
g344
s(I1195
I1926
tp3864
g228
s(I1201
I1202
tp3865
g726
s(I184
I185
tp3866
g475
s(I78
I362
tp3867
(I78
I362
Ntp3868
s(I2054
I2055
tp3869
g1412
s(I1705
I540
tp3870
(I415
I540
I1705
tp3871
s(I428
I429
tp3872
(I428
I429
Ntp3873
s(I2291
I2292
tp3874
g800
s(I1745
I1227
tp3875
g2241
s(I596
I2023
tp3876
g261
s(I2040
I2041
tp3877
g356
s(I2020
I2021
tp3878
g189
s(I808
I1299
tp3879
(I808
I1299
Ntp3880
s(I497
I579
tp3881
(I497
I579
Ntp3882
s(I1006
I2063
tp3883
g1033
s(I620
I2165
tp3884
(I620
I2165
Ntp3885
s(I11
I492
tp3886
(I11
I492
Ntp3887
s(I1888
I226
tp3888
g10
s(I1712
I1713
tp3889
(I1712
I1713
Ntp3890
s(I200
I110
tp3891
g203
s(I1290
I2277
tp3892
(I1290
I1650
I2277
tp3893
s(I257
I1347
tp3894
g491
s(I1788
I1789
tp3895
g483
s(I8
I9
tp3896
(I8
I10
I9
tp3897
s(I101
I1901
tp3898
(I101
I1901
Ntp3899
s(I1543
I2450
tp3900
(I1543
I2450
Ntp3901
s(I489
I1175
tp3902
(I489
I1175
Ntp3903
s(I2383
I2440
tp3904
(I2383
I2440
Ntp3905
s(I1793
I1794
tp3906
g1966
s(I2545
I2544
tp3907
g3144
s(I1772
I604
tp3908
g235
s(I1273
I1878
tp3909
g218
s(I133
I1477
tp3910
g992
s(I1776
I1777
tp3911
g483
s(I605
I914
tp3912
g1016
s(I1500
I1566
tp3913
g605
s(I139
I2110
tp3914
g1817
s(I1541
I962
tp3915
g2215
s(I189
I2548
tp3916
(I189
I2548
Ntp3917
s(I1133
I1134
tp3918
g2993
s(I1872
I2395
tp3919
g766
s(I1840
I2311
tp3920
g3250
s(I896
I1861
tp3921
(I896
I1861
Ntp3922
s(I1411
I1412
tp3923
g1216
s(I2290
I1268
tp3924
(I1269
I1268
I2290
tp3925
s(I477
I1574
tp3926
g1869
s(I965
I966
tp3927
g697
s(I32
I1043
tp3928
(I32
I1043
Ntp3929
s(I1032
I1033
tp3930
(I1032
I1033
Ntp3931
s(I560
I1051
tp3932
(I560
I1051
Ntp3933
s(I975
I976
tp3934
(I975
I976
Ntp3935
s(I1623
I1455
tp3936
g1955
s(I83
I726
tp3937
g2036
s(I2081
I1110
tp3938
(I1111
I2082
I1722
tp3939
s(I1444
I767
tp3940
g1730
s(I584
I688
tp3941
g150
s(I283
I2403
tp3942
(I283
I2249
I2403
tp3943
s(I642
I2282
tp3944
g3842
s(I1985
I1986
tp3945
g2354
s(I496
I1498
tp3946
(I496
I1498
Ntp3947
s(I222
I1013
tp3948
g22
s(I2284
I2285
tp3949
g2516
s(I1095
I1096
tp3950
g2194
s(I102
I767
tp3951
(I102
I767
Ntp3952
s(I228
I2574
tp3953
g2494
s(I1200
I594
tp3954
g390
s(I324
I325
tp3955
(I324
I325
Ntp3956
s(I1286
I1762
tp3957
g156
s(I143
I1575
tp3958
g146
s(I900
I1874
tp3959
(I900
I1874
Ntp3960
s(I247
I248
tp3961
(I247
I248
Ntp3962
s(I1243
I1244
tp3963
(I1243
I1244
Ntp3964
s(I1439
I1249
tp3965
(I80
I1249
I1439
tp3966
s(I1111
I2308
tp3967
(I1111
I1112
I2308
tp3968
s(I16
I17
tp3969
g1299
s(I1069
I1327
tp3970
(I1069
I1327
Ntp3971
s(I2345
I1505
tp3972
g1003
s(I400
I575
tp3973
(I400
I193
I575
tp3974
s(I252
I1568
tp3975
g605
s(I1595
I784
tp3976
g1054
s(I2070
I2071
tp3977
(I940
I2071
I2069
tp3978
s(I2444
I1837
tp3979
g1274
s(I968
I967
tp3980
g173
s(I208
I1261
tp3981
(I208
I1261
Ntp3982
s(I1623
I135
tp3983
g1203
s(I2096
I167
tp3984
(I168
I167
I2096
tp3985
s(I520
I1721
tp3986
g1001
s(I2086
I2087
tp3987
g642
s(I220
I907
tp3988
g1384
s(I2506
I519
tp3989
g748
s(I217
I357
tp3990
(I217
I357
Ntp3991
s(I659
I2446
tp3992
g1274
s(I650
I2380
tp3993
(I650
I2380
Ntp3994
s(I442
I578
tp3995
(I442
I578
Ntp3996
s(I2008
I2009
tp3997
g2257
s(I1577
I1222
tp3998
(I876
I1222
I1577
tp3999
s(I1776
I1775
tp4000
g445
s(I490
I2074
tp4001
(I490
I2074
Ntp4002
s(I167
I2096
tp4003
g3006
s(I1563
I92
tp4004
(I91
I92
I1563
tp4005
s(I737
I1300
tp4006
g1641
s(I700
I453
tp4007
g3806
s(I829
I167
tp4008
g1433
s(I2476
I2475
tp4009
g1881
s(I173
I2234
tp4010
g676
s(I2343
I2342
tp4011
g271
s(I6
I749
tp4012
(I6
I19
I749
tp4013
s(I1970
I296
tp4014
g1748
s(I1100
I2423
tp4015
g1037
s(I1791
I1792
tp4016
g483
s(I2360
I1716
tp4017
(I1714
I1716
I1715
tp4018
s(I2336
I2337
tp4019
g471
s(I1090
I2493
tp4020
(I1090
I2493
Ntp4021
s(I2129
I2267
tp4022
(I2129
I2267
Ntp4023
s(I560
I561
tp4024
(I560
I561
Ntp4025
s(I2486
I2487
tp4026
g1062
s(I503
I2168
tp4027
(I503
I2168
Ntp4028
s(I1016
I1404
tp4029
g1849
s(I173
I1403
tp4030
(I173
I1402
I1403
tp4031
s(I2304
I496
tp4032
g1211
s(I989
I1965
tp4033
(I989
I1965
Ntp4034
s(I7
I578
tp4035
(I7
I578
Ntp4036
s(I88
I774
tp4037
g3514
s(I733
I1806
tp4038
g583
s(I1844
I1845
tp4039
g1497
s(I1056
I1057
tp4040
(I1056
I1057
Ntp4041
s(I1076
I557
tp4042
g1008
s(I660
I1837
tp4043
(I660
I1837
Ntp4044
s(I1356
I155
tp4045
g980
s(I1316
I1704
tp4046
(I1316
I1704
Ntp4047
s(I990
I1795
tp4048
(I990
I1795
Ntp4049
s(I1314
I2571
tp4050
g1209
s(I1698
I2517
tp4051
(I1698
I2517
Ntp4052
s(I203
I73
tp4053
g2046
s(I28
I1046
tp4054
g668
s(I1864
I2481
tp4055
(I1864
I2481
Ntp4056
s(I2046
I2047
tp4057
g333
s(I1794
I1793
tp4058
g2854
s(I252
I1499
tp4059
g232
s(I298
I971
tp4060
(I298
I971
Ntp4061
s(I2475
I2476
tp4062
g1509
s(I1054
I2552
tp4063
g384
s(I1926
I1925
tp4064
g228
s(I77
I363
tp4065
(I77
I363
Ntp4066
s(I576
I193
tp4067
g3974
s(I1603
I2415
tp4068
g621
s(I1638
I2479
tp4069
(I1638
I2479
Ntp4070
s(I447
I1511
tp4071
(I447
I720
I1511
tp4072
s(I2274
I2275
tp4073
g473
s(I1781
I1782
tp4074
g483
s(I781
I782
tp4075
(I781
I782
Ntp4076
s(I1643
I986
tp4077
g323
s(I2188
I2189
tp4078
g3076
s(I296
I1970
tp4079
(I296
I1088
I1970
tp4080
s(I865
I2172
tp4081
g1836
s(I735
I1011
tp4082
(I735
I1011
Ntp4083
s(I1725
I1962
tp4084
(I1725
I1962
Ntp4085
s(I1615
I1616
tp4086
g831
s(I2394
I1145
tp4087
g559
s(I362
I738
tp4088
(I362
I738
Ntp4089
s(I115
I2143
tp4090
(I115
I2143
Ntp4091
s(I1110
I2082
tp4092
g3939
s(I1782
I1783
tp4093
g483
s(I2142
I101
tp4094
g1643
s(I528
I582
tp4095
(I528
I582
Ntp4096
s(I261
I262
tp4097
g2985
s(I193
I1648
tp4098
(I193
I734
I1648
tp4099
s(I2478
I2477
tp4100
g1881
s(I1013
I222
tp4101
g2476
s(I1668
I283
tp4102
g399
s(I696
I78
tp4103
g424
s(I1856
I1855
tp4104
g2943
s(I1240
I1964
tp4105
g705
s(I22
I380
tp4106
g3374
s(I137
I409
tp4107
(I137
I409
Ntp4108
s(I2305
I2306
tp4109
(I2305
I2306
Ntp4110
s(I160
I1252
tp4111
(I160
I1252
Ntp4112
s(I179
I1586
tp4113
(I179
I1586
Ntp4114
s(I2214
I2215
tp4115
g615
s(I1140
I1141
tp4116
g2324
s(I2128
I2141
tp4117
g2363
s(I2041
I2042
tp4118
g356
s(I1349
I947
tp4119
g1304
s(I1809
I642
tp4120
g758
s(I1957
I1958
tp4121
g2376
s(I1386
I2005
tp4122
g2257
s(I1637
I1436
tp4123
g3083
s(I1891
I1892
tp4124
g10
s(I97
I929
tp4125
(I97
I929
Ntp4126
s(I918
I917
tp4127
g1284
s(I2552
I201
tp4128
g384
s(I2501
I2500
tp4129
g833
s(I607
I606
tp4130
g1016
s(I1628
I1982
tp4131
g28
s(I234
I1201
tp4132
(I234
I1201
Ntp4133
s(I972
I973
tp4134
g1724
s(I2446
I659
tp4135
g2016
s(I1555
I1554
tp4136
g555
s(I1147
I2465
tp4137
(I1147
I2465
Ntp4138
s(I521
I522
tp4139
g1534
s(I1113
I1387
tp4140
(I1113
I1387
Ntp4141
s(I1840
I2269
tp4142
g473
s(I2372
I1314
tp4143
(I1315
I1314
I2372
tp4144
s(I1834
I1152
tp4145
g1561
s(I104
I2085
tp4146
(I104
I2085
Ntp4147
s(I1767
I1762
tp4148
g265
s(I1377
I1378
tp4149
g2536
s(I25
I1328
tp4150
(I25
I1328
Ntp4151
s(I1200
I80
tp4152
g84
s(I183
I2416
tp4153
g207
s(I1753
I767
tp4154
(I768
I767
I1521
tp4155
s(I763
I764
tp4156
(I763
I764
Ntp4157
s(I446
I297
tp4158
(I296
I297
I446
tp4159
s(I1221
I1735
tp4160
g2816
s(I2176
I909
tp4161
g1740
s(I619
I2173
tp4162
(I619
I2173
Ntp4163
s(I1004
I1005
tp4164
(I1004
I1005
Ntp4165
s(I2490
I101
tp4166
g3102
s(I2044
I2043
tp4167
g74
s(I2050
I2051
tp4168
g333
s(I621
I1676
tp4169
g2250
s(I1348
I948
tp4170
g1784
s(I1731
I1866
tp4171
g321
s(I217
I1596
tp4172
(I217
I1596
Ntp4173
s(I2524
I2126
tp4174
g295
s(I86
I1273
tp4175
(I86
I1273
Ntp4176
s(I329
I398
tp4177
(I329
I736
I398
tp4178
s(I2344
I1506
tp4179
g1003
s(I738
I1087
tp4180
g3376
s(I243
I561
tp4181
(I243
I561
Ntp4182
s(I467
I741
tp4183
(I25
I741
I467
tp4184
s(I2088
I2089
tp4185
g48
s(I34
I35
tp4186
(I34
I35
Ntp4187
s(I515
I806
tp4188
(I515
I806
Ntp4189
s(I2103
I731
tp4190
g2526
s(I1716
I2361
tp4191
(I1716
I242
I2361
tp4192
s(I575
I576
tp4193
g3974
s(I991
I992
tp4194
(I990
I993
I991
tp4195
s(I2387
I843
tp4196
g638
s(I1203
I1202
tp4197
g1796
s(I250
I251
tp4198
(I249
I251
I250
tp4199
s(I199
I1594
tp4200
g1666
s(I1653
I256
tp4201
g2877
s(I180
I181
tp4202
(I180
I181
Ntp4203
s(I1143
I1144
tp4204
g559
s(I382
I425
tp4205
(I382
I425
Ntp4206
s(I1721
I1720
tp4207
g1001
s(I1595
I395
tp4208
g1593
s(I463
I1362
tp4209
(I463
I1362
Ntp4210
s(I1598
I1854
tp4211
(I1598
I1853
I1854
tp4212
s(I620
I1514
tp4213
g3310
s(I216
I1387
tp4214
(I216
I1387
Ntp4215
s(I183
I1645
tp4216
g116
s(I74
I739
tp4217
(I74
I739
Ntp4218
s(I1085
I421
tp4219
g2879
s(I2076
I2419
tp4220
(I2076
I2419
Ntp4221
s(I1981
I1947
tp4222
g28
s(I2023
I596
tp4223
g3334
s(I1931
I743
tp4224
g1512
s(I27
I750
tp4225
g1393
s(I29
I30
tp4226
g3488
s(I622
I1049
tp4227
g1115
s(I124
I156
tp4228
(I124
I156
Ntp4229
s(I694
I57
tp4230
g30
s(I1566
I1565
tp4231
g605
s(I937
I938
tp4232
g64
s(I1449
I1584
tp4233
(I1449
I1584
Ntp4234
s(I1806
I1807
tp4235
g583
s(I1128
I1127
tp4236
g664
s(I1183
I1685
tp4237
(I1183
I1685
Ntp4238
s(I106
I1794
tp4239
g2854
s(I2337
I2338
tp4240
g471
s(I2110
I139
tp4241
g2370
s(I519
I1533
tp4242
(I519
I1534
I1533
tp4243
s(I827
I180
tp4244
g3337
s(I829
I1481
tp4245
g2826
s(I1757
I2108
tp4246
g207
s(I1589
I1590
tp4247
(I1589
I1590
Ntp4248
s(I1264
I1600
tp4249
g106
s(I669
I668
tp4250
g793
s(I96
I41
tp4251
(I94
I41
I95
tp4252
s(I1118
I1119
tp4253
g1154
s(I671
I670
tp4254
g793
s(I207
I208
tp4255
(I207
I208
Ntp4256
s(I1077
I558
tp4257
g1008
s(I896
I1691
tp4258
(I896
I1691
Ntp4259
s(I1263
I173
tp4260
g593
s(I1814
I1815
tp4261
(I1814
I1815
Ntp4262
s(I1230
I485
tp4263
g2379
s(I518
I4
tp4264
(I5
I4
I518
tp4265
s(I1275
I1274
tp4266
g2946
s(I1180
I1091
tp4267
(I620
I1091
I1180
tp4268
s(I402
I551
tp4269
g619
s(I2187
I2188
tp4270
g3076
s(I1630
I1981
tp4271
g28
s(I1562
I1585
tp4272
g2892
s(I1463
I556
tp4273
g3323
s(I424
I667
tp4274
(I424
I667
Ntp4275
s(I115
I1331
tp4276
g3218
s(I833
I834
tp4277
g3343
s(I1629
I1630
tp4278
g28
s(I1191
I2234
tp4279
g1237
s(I718
I204
tp4280
g2046
s(I1780
I1781
tp4281
g483
s(I2002
I603
tp4282
(I253
I604
I602
tp4283
s(I1982
I1629
tp4284
g28
s(I1336
I792
tp4285
(I790
I793
I1335
tp4286
s(I851
I195
tp4287
g2990
s(I338
I457
tp4288
g1172
s(I2099
I1271
tp4289
g3791
s(I913
I1851
tp4290
g508
s(I987
I988
tp4291
g323
s(I1245
I1264
tp4292
(I1245
I1264
Ntp4293
s(I330
I396
tp4294
(I330
I396
Ntp4295
s(I100
I2259
tp4296
(I100
I1875
I2259
tp4297
s(I25
I466
tp4298
(I25
I465
I466
tp4299
s(I349
I350
tp4300
(I349
I350
Ntp4301
s(I204
I718
tp4302
g339
s(I499
I93
tp4303
g3268
s(I357
I716
tp4304
(I357
I716
Ntp4305
s(I2480
I1864
tp4306
(I1863
I1864
I2480
tp4307
s(I1835
I2428
tp4308
(I1835
I2428
Ntp4309
s(I1227
I1597
tp4310
g249
s(I713
I714
tp4311
g1408
s(I2494
I2495
tp4312
g422
s(I1293
I159
tp4313
g130
s(I1736
I1735
tp4314
g923
s(I571
I2309
tp4315
g2023
s(I705
I554
tp4316
g1615
s(I1326
I1652
tp4317
g2668
s(I498
I693
tp4318
g3268
s(I909
I2175
tp4319
g1740
s(I651
I652
tp4320
(I651
I652
Ntp4321
s(I278
I547
tp4322
(I278
I547
Ntp4323
s(I1367
I1330
tp4324
g541
s(I1824
I1825
tp4325
(I1823
I1825
I1824
tp4326
s(I1311
I2076
tp4327
(I1311
I2076
Ntp4328
s(I1005
I1121
tp4329
g623
s(I218
I219
tp4330
(I218
I219
Ntp4331
s(I2133
I2134
tp4332
g354
s(I2499
I2500
tp4333
g422
s(I2215
I2214
tp4334
g2372
s(I1971
I657
tp4335
g1649
s(I481
I366
tp4336
g597
s(I881
I1368
tp4337
(I881
I1368
Ntp4338
s(I2064
I1271
tp4339
g78
s(I249
I250
tp4340
g4199
s(I2220
I2221
tp4341
g551
s(I2269
I1932
tp4342
g473
s(I2175
I909
tp4343
g465
s(I2308
I1112
tp4344
g3968
s(I1072
I437
tp4345
g3348
s(I404
I1424
tp4346
g2554
s(I731
I377
tp4347
g2526
s(I60
I166
tp4348
(I60
I166
Ntp4349
s(I334
I502
tp4350
(I334
I502
Ntp4351
s(I2339
I2338
tp4352
g860
s(I1494
I1495
tp4353
g2202
s(I950
I951
tp4354
g541
s(I2039
I2038
tp4355
g2048
s(I1573
I1572
tp4356
g1869
s(I1474
I1473
tp4357
g992
s(I1456
I1916
tp4358
g746
s(I151
I771
tp4359
(I151
I771
Ntp4360
s(I1608
I979
tp4361
g2005
s(I210
I211
tp4362
g961
s(I1015
I1551
tp4363
(I1015
I11
I1551
tp4364
s(I2062
I814
tp4365
g561
s(I1546
I1547
tp4366
g636
s(I2335
I2334
tp4367
g354
s(I130
I1851
tp4368
g1016
s(I2047
I2046
tp4369
g74
s(I493
I726
tp4370
(I493
I83
I726
tp4371
s(I760
I761
tp4372
g603
s(I2197
I2196
tp4373
g883
s(I244
I857
tp4374
g1235
s(I2365
I1725
tp4375
g1853
s(I28
I1355
tp4376
g3488
s(I616
I812
tp4377
(I616
I812
Ntp4378
s(I853
I22
tp4379
g1736
s(I156
I810
tp4380
(I156
I810
Ntp4381
s(I696
I335
tp4382
g2163
s(I421
I2067
tp4383
(I421
I2067
Ntp4384
s(I5
I518
tp4385
g4265
s(I534
I850
tp4386
(I534
I850
Ntp4387
s(I1638
I2264
tp4388
g1310
s(I617
I1843
tp4389
g2542
s(I47
I48
tp4390
g2479
s(I1111
I2279
tp4391
(I1111
I2279
Ntp4392
s(I2134
I2133
tp4393
g1999
s(I1521
I1753
tp4394
g4155
s(I519
I1532
tp4395
(I519
I1532
Ntp4396
s(I86
I1396
tp4397
(I86
I1396
Ntp4398
s(I238
I1962
tp4399
(I238
I1962
Ntp4400
s(I2404
I2249
tp4401
g3943
s(I455
I687
tp4402
g3014
s(I1701
I1700
tp4403
g487
s(I1693
I1861
tp4404
(I1693
I1861
Ntp4405
s(I132
I133
tp4406
g1522
s(I906
I2003
tp4407
(I906
I2003
Ntp4408
s(I1075
I378
tp4409
g3717
s(I515
I2397
tp4410
(I515
I2397
Ntp4411
s(I962
I1226
tp4412
g179
s(I1065
I1066
tp4413
g3152
s(I2174
I2175
tp4414
g465
s(I2312
I2311
tp4415
g1444
s(I939
I2357
tp4416
g510
s(I1801
I2232
tp4417
g1812
s(I131
I1060
tp4418
(I131
I148
I1060
tp4419
s(I83
I501
tp4420
(I83
I501
Ntp4421
s(I673
I674
tp4422
g1855
s(I45
I1057
tp4423
(I45
I1057
Ntp4424
s(I362
I1086
tp4425
(I362
I1086
Ntp4426
s(I656
I1242
tp4427
(I656
I1242
Ntp4428
s(I24
I1326
tp4429
(I24
I1326
Ntp4430
s(I309
I310
tp4431
g2054
s(I2339
I2340
tp4432
g471
s(I58
I118
tp4433
(I58
I118
Ntp4434
s(I1457
I1918
tp4435
g746
s(I452
I1445
tp4436
(I452
I1445
Ntp4437
s(I648
I1467
tp4438
g435
s(I1089
I1090
tp4439
(I1089
I1090
Ntp4440
s(I161
I1161
tp4441
(I161
I1161
Ntp4442
s(I300
I301
tp4443
g1759
s(I1208
I1313
tp4444
g565
s(I1927
I1928
tp4445
g607
s(I1454
I444
tp4446
g1904
s(I1053
I1052
tp4447
g2294
s(I465
I742
tp4448
(I465
I742
Ntp4449
s(I1060
I131
tp4450
g2926
s(I1574
I477
tp4451
g1290
s(I624
I2276
tp4452
g1144
s(I1925
I1926
tp4453
g299
s(I343
I854
tp4454
(I343
I473
I854
tp4455
s(I25
I1327
tp4456
(I25
I1327
Ntp4457
s(I2164
I384
tp4458
g100
s(I1948
I245
tp4459
g787
s(I2258
I1875
tp4460
g4297
s(I1712
I2353
tp4461
g3314
s(I2287
I2286
tp4462
g3379
s(I948
I1348
tp4463
g1845
s(I31
I32
tp4464
(I31
I32
Ntp4465
s(I2361
I2362
tp4466
g4192
s(I572
I223
tp4467
g3774
s(I171
I1860
tp4468
g676
s(I2114
I1820
tp4469
(I624
I1820
I2114
tp4470
s(I384
I2164
tp4471
g874
s(I299
I447
tp4472
(I299
I447
Ntp4473
s(I239
I240
tp4474
(I239
I240
Ntp4475
s(I2427
I1516
tp4476
g867
s(I1903
I223
tp4477
g58
s(I1531
I2246
tp4478
g3676
s(I89
I90
tp4479
(I89
I90
Ntp4480
s(I788
I1393
tp4481
g102
s(I1339
I1291
tp4482
g1707
s(I2530
I418
tp4483
g394
s(I2423
I1100
tp4484
g2076
s(I1115
I1116
tp4485
g1165
s(I566
I1969
tp4486
g1959
s(I2317
I320
tp4487
(I676
I320
I677
tp4488
s(I822
I1827
tp4489
g341
s(I1349
I1374
tp4490
(I947
I946
I1349
tp4491
s(I2374
I1194
tp4492
g1959
s(I229
I2570
tp4493
(I229
I2570
Ntp4494
s(I1395
I948
tp4495
g1845
s(I1212
I1213
tp4496
(I1212
I1213
Ntp4497
s(I165
I2322
tp4498
(I165
I2322
Ntp4499
s(I97
I408
tp4500
(I97
I408
Ntp4501
s(I1807
I10
tp4502
g583
s(I781
I1030
tp4503
(I781
I1030
Ntp4504
s(I1236
I1237
tp4505
(I1236
I1237
Ntp4506
s(I1196
I1930
tp4507
g1080
s(I2367
I2366
tp4508
g3083
s(I919
I920
tp4509
g2359
s(I2455
I71
tp4510
g177
s(I2362
I2361
tp4511
g2498
s(I2385
I2441
tp4512
g742
s(I832
I833
tp4513
(I830
I833
I831
tp4514
s(I433
I2504
tp4515
g833
s(I2166
I1450
tp4516
g3353
s(I463
I1431
tp4517
(I463
I1432
I1431
tp4518
s(I141
I142
tp4519
(I140
I142
I141
tp4520
s(I2363
I2364
tp4521
(I2363
I2364
Ntp4522
s(I1984
I1586
tp4523
g1410
s(I790
I1335
tp4524
g4286
s(I920
I921
tp4525
g2359
s(I628
I629
tp4526
(I628
I630
I629
tp4527
s(I43
I1665
tp4528
(I43
I1665
Ntp4529
s(I246
I488
tp4530
(I246
I488
Ntp4531
s(I577
I6
tp4532
(I498
I6
I577
tp4533
s(I2474
I2475
tp4534
(I2474
I2475
Ntp4535
s(I1947
I1981
tp4536
g1744
s(I2169
I2506
tp4537
g748
s(I403
I553
tp4538
g2159
s(I2218
I2219
tp4539
g551
s(I1548
I1547
tp4540
g3104
s(I1884
I1885
tp4541
g10
s(I49
I1021
tp4542
g2479
s(I1737
I1736
tp4543
g923
s(I751
I752
tp4544
(I751
I479
I752
tp4545
s(I35
I1131
tp4546
(I35
I1131
Ntp4547
s(I275
I761
tp4548
(I275
I760
I761
tp4549
s(I94
I95
tp4550
g4252
s(I2515
I1697
tp4551
(I1636
I1697
I2516
tp4552
s(I810
I811
tp4553
g327
s(I62
I640
tp4554
(I62
I640
Ntp4555
s(I266
I1398
tp4556
g771
s(I1919
I1920
tp4557
g746
s(I1807
I1806
tp4558
g625
s(I124
I947
tp4559
(I124
I947
Ntp4560
s(I1616
I1617
tp4561
g831
s(I192
I209
tp4562
(I192
I209
Ntp4563
s(I432
I1739
tp4564
g3551
s(I383
I1576
tp4565
(I383
I1576
Ntp4566
s(I1516
I2427
tp4567
g2595
s(I2067
I2223
tp4568
(I2067
I2223
Ntp4569
s(I684
I685
tp4570
(I684
I685
Ntp4571
s(I1073
I157
tp4572
g1537
s(I761
I760
tp4573
g4549
s(I443
I579
tp4574
(I443
I579
Ntp4575
s(I1182
I100
tp4576
(I1181
I100
I1182
tp4577
s(I188
I1364
tp4578
g3450
s(I1769
I722
tp4579
g2318
s(I2272
I1822
tp4580
g1144
s(I2420
I175
tp4581
g1962
s(I224
I573
tp4582
(I224
I573
Ntp4583
s(I1783
I1782
tp4584
g445
s(I498
I577
tp4585
g4533
s(I142
I143
tp4586
(I142
I143
Ntp4587
s(I2563
I524
tp4588
g3457
s(I2032
I2033
tp4589
g529
s(I1277
I1276
tp4590
g1969
s(I1618
I2326
tp4591
(I1618
I1620
I2326
tp4592
s(I159
I1512
tp4593
(I159
I720
I1512
tp4594
s(I1155
I1763
tp4595
g1358
s(I1533
I2248
tp4596
g4243
s(I1229
I483
tp4597
g2887
s(I346
I960
tp4598
(I346
I960
Ntp4599
s(I2399
I624
tp4600
g2957
s(I684
I902
tp4601
(I684
I902
Ntp4602
s(I1182
I1181
tp4603
(I100
I1181
I1182
tp4604
s(I1532
I2358
tp4605
(I1532
I2358
Ntp4606
s(I1897
I1898
tp4607
g1070
s(I1802
I1803
tp4608
(I1802
I1803
Ntp4609
s(I1038
I1039
tp4610
(I1038
I1039
Ntp4611
s(I2060
I2059
tp4612
g763
s(I1000
I1766
tp4613
g321
s(I1719
I2395
tp4614
(I1719
I1872
I2395
tp4615
s(I2400
I1857
tp4616
g3712
s(I864
I1448
tp4617
(I864
I997
I1448
tp4618
s(I1220
I1734
tp4619
g2816
s(I1656
I2409
tp4620
(I1656
I2409
Ntp4621
s(I2187
I842
tp4622
g485
s(I1007
I1008
tp4623
g3447
s(I2407
I2406
tp4624
g2617
s(I487
I376
tp4625
g1150
s(I582
I1952
tp4626
(I582
I1952
Ntp4627
s(I2217
I1020
tp4628
g1365
s(I453
I883
tp4629
(I453
I454
I883
tp4630
s(I2026
I2025
tp4631
g601
s(I1271
I1946
tp4632
(I1271
I1946
Ntp4633
s(I1648
I734
tp4634
g4099
s(I2350
I2351
tp4635
g1003
s(I1155
I1156
tp4636
g795
s(I456
I686
tp4637
g587
s(I788
I1433
tp4638
g1682
s(I2012
I2013
tp4639
g3611
s(I279
I278
tp4640
g1951
s(I12
I13
tp4641
g3207
s(I1477
I1476
tp4642
g992
s(I2178
I2177
tp4643
g1464
s(I655
I769
tp4644
g3786
s(I1544
I1545
tp4645
(I1544
I1545
Ntp4646
s(I681
I1227
tp4647
(I681
I1227
Ntp4648
s(I1771
I1400
tp4649
(I778
I1400
I1770
tp4650
s(I2525
I2201
tp4651
g2191
s(I2021
I2020
tp4652
g2872
s(I8
I133
tp4653
(I8
I133
Ntp4654
s(I67
I1787
tp4655
g483
s(I1686
I2421
tp4656
(I1686
I2421
Ntp4657
s(I537
I433
tp4658
g437
s(I449
I450
tp4659
(I449
I450
Ntp4660
s(I584
I856
tp4661
(I584
I856
Ntp4662
s(I124
I1649
tp4663
(I124
I1649
Ntp4664
s(I2212
I2213
tp4665
g2615
s(I383
I878
tp4666
g889
s(I1913
I1912
tp4667
g58
s(I1917
I1916
tp4668
g58
s(I223
I1903
tp4669
g746
s(I88
I401
tp4670
g1292
s(I1010
I1037
tp4671
(I1010
I1037
Ntp4672
s(I1448
I997
tp4673
g4618
s(I1863
I2480
tp4674
g4307
s(I1818
I1817
tp4675
g2610
s(I1616
I1615
tp4676
g44
s(I144
I852
tp4677
(I144
I852
Ntp4678
s(I838
I590
tp4679
g2486
s(I111
I112
tp4680
(I111
I112
Ntp4681
s(I2259
I1877
tp4682
g4297
s(I1735
I1736
tp4683
g2816
s(I192
I667
tp4684
(I192
I667
Ntp4685
s(I1283
I1731
tp4686
g321
s(I465
I1830
tp4687
g2736
s(I515
I1222
tp4688
(I515
I1222
Ntp4689
s(I1357
I207
tp4690
g3361
s(I2504
I433
tp4691
g422
s(I2314
I69
tp4692
g3250
s(I1411
I1438
tp4693
(I1411
I1438
Ntp4694
s(I603
I604
tp4695
g4283
s(I497
I578
tp4696
(I497
I578
Ntp4697
s(I1511
I447
tp4698
(I720
I447
I1511
tp4699
s(I924
I925
tp4700
g1899
s(I6
I748
tp4701
g411
s(I178
I2421
tp4702
(I178
I2421
Ntp4703
s(I1886
I1887
tp4704
g10
s(I155
I1356
tp4705
g3361
s(I659
I660
tp4706
(I659
I660
Ntp4707
s(I1832
I2362
tp4708
g2498
s(I2471
I1314
tp4709
g3540
s(I1741
I198
tp4710
g2474
s(I73
I2523
tp4711
(I73
I2523
Ntp4712
s(I422
I423
tp4713
g350
s(I799
I1636
tp4714
(I799
I1636
Ntp4715
s(I643
I644
tp4716
g308
s(I245
I1052
tp4717
(I245
I375
I1052
tp4718
s(I892
I963
tp4719
(I892
I962
I963
tp4720
s(I73
I624
tp4721
(I73
I624
Ntp4722
s(I2544
I2543
tp4723
g3144
s(I2071
I2540
tp4724
(I2071
I2540
Ntp4725
s(I998
I1041
tp4726
g3162
s(I1315
I1316
tp4727
(I1315
I1316
Ntp4728
s(I1845
I1846
tp4729
g1497
s(I1500
I1567
tp4730
g1678
s(I322
I1502
tp4731
g674
s(I2348
I2347
tp4732
g271
s(I1909
I1910
tp4733
g746
s(I2045
I2046
tp4734
g333
s(I1503
I2350
tp4735
g1003
s(I1238
I730
tp4736
g1985
s(I1841
I1822
tp4737
g473
s(I726
I83
tp4738
g4371
s(I1634
I1635
tp4739
g1381
s(I162
I364
tp4740
g469
s(I921
I789
tp4741
g2359
s(I2342
I1196
tp4742
g271
s(I1505
I1504
tp4743
g1003
s(I1714
I1715
tp4744
g4018
s(I95
I96
tp4745
g4252
s(I260
I382
tp4746
(I260
I382
Ntp4747
s(I464
I465
tp4748
(I464
I465
Ntp4749
s(I2416
I2106
tp4750
g207
s(I1512
I720
tp4751
g4594
s(I122
I121
tp4752
g1221
s(I889
I2289
tp4753
g3623
s(I382
I532
tp4754
(I382
I532
Ntp4755
s(I2183
I2182
tp4756
g138
s(I2372
I1315
tp4757
(I1314
I1315
I2372
tp4758
s(I679
I2317
tp4759
g4488
s(I1915
I1456
tp4760
g746
s(I153
I205
tp4761
(I153
I205
Ntp4762
s(I1503
I2349
tp4763
g271
s(I2319
I2408
tp4764
(I2319
I2408
Ntp4765
s(I1161
I1465
tp4766
(I1161
I160
I1465
tp4767
s(I38
I1418
tp4768
g3678
s(I1209
I1409
tp4769
(I1209
I1409
Ntp4770
s(I1734
I1220
tp4771
g923
s(I1479
I2223
tp4772
(I1479
I2223
Ntp4773
s(I286
I287
tp4774
(I286
I287
Ntp4775
s(I1258
I1351
tp4776
(I1258
I1351
Ntp4777
s(I2551
I2230
tp4778
g203
s(I431
I469
tp4779
(I431
I469
Ntp4780
s(I1886
I1885
tp4781
g144
s(I2543
I412
tp4782
g3144
s(I271
I272
tp4783
g1928
s(I2136
I2237
tp4784
(I2136
I2237
Ntp4785
s(I1790
I1791
tp4786
g483
s(I774
I88
tp4787
g1619
s(I1755
I104
tp4788
g2063
s(I563
I564
tp4789
g82
s(I506
I505
tp4790
g2132
s(I1288
I1289
tp4791
(I1288
I1289
Ntp4792
s(I403
I552
tp4793
(I403
I552
Ntp4794
s(I1911
I1912
tp4795
g746
s(I1319
I1320
tp4796
g2435
s(I2340
I1197
tp4797
g471
s(I1465
I160
tp4798
g4767
s(I2379
I212
tp4799
g54
s(I30
I31
tp4800
g3488
s(I435
I1856
tp4801
g2943
s(I720
I1511
tp4802
g4699
s(I100
I1182
tp4803
g4604
s(I1877
I2259
tp4804
g527
s(I1987
I1988
tp4805
g912
s(I909
I2176
tp4806
g465
s(I411
I864
tp4807
(I411
I864
Ntp4808
s(I325
I1247
tp4809
(I325
I1247
Ntp4810
s(I217
I356
tp4811
(I217
I356
Ntp4812
s(I438
I1558
tp4813
g555
s(I1677
I2222
tp4814
g3044
s(I262
I2207
tp4815
g134
s(I1989
I2156
tp4816
(I1989
I2153
I2156
tp4817
s(I1896
I224
tp4818
g10
s(I272
I273
tp4819
g1928
s(I1550
I1549
tp4820
g3104
s(I2400
I2130
tp4821
g3517
s(I637
I1164
tp4822
(I637
I1164
Ntp4823
s(I2560
I2559
tp4824
g1195
s(I1153
I1834
tp4825
g1561
s(I842
I2187
tp4826
g3076
s(I1727
I1728
tp4827
g2598
s(I978
I1239
tp4828
g315
s(I169
I2029
tp4829
g1559
s(I590
I838
tp4830
g352
s(I2079
I573
tp4831
(I574
I573
I2079
tp4832
s(I706
I723
tp4833
(I706
I723
Ntp4834
s(I798
I799
tp4835
(I798
I799
Ntp4836
s(I140
I141
tp4837
g4520
s(I1403
I1402
tp4838
g4031
s(I271
I390
tp4839
(I271
I390
Ntp4840
s(I208
I1138
tp4841
g2324
s(I650
I2479
tp4842
(I650
I2479
Ntp4843
s(I783
I784
tp4844
g1052
s(I2224
I2225
tp4845
(I2224
I2225
Ntp4846
s(I687
I882
tp4847
g3014
s(I2068
I2283
tp4848
g312
s(I138
I805
tp4849
g1176
s(I1181
I1182
tp4850
g4577
s(I827
I826
tp4851
g1912
s(I2254
I2255
tp4852
g459
s(I76
I1986
tp4853
g2862
s(I316
I317
tp4854
g2054
s(I833
I1729
tp4855
g1897
s(I209
I1323
tp4856
(I209
I1325
I1323
tp4857
s(I1212
I1718
tp4858
(I1212
I1718
Ntp4859
s(I218
I357
tp4860
(I218
I357
Ntp4861
s(I2388
I844
tp4862
g638
s(I915
I1772
tp4863
g235
s(I609
I681
tp4864
(I609
I681
Ntp4865
s(I1877
I1876
tp4866
g4297
s(I80
I723
tp4867
(I80
I723
Ntp4868
s(I174
I2420
tp4869
g1962
s(I1811
I1812
tp4870
g2678
s(I1076
I558
tp4871
g1782
s(I91
I1563
tp4872
g4005
s(I577
I498
tp4873
g1766
s(I1517
I1452
tp4874
g949
s(I892
I1540
tp4875
(I892
I1625
I1540
tp4876
s(I93
I1672
tp4877
(I93
I1672
Ntp4878
s(I1756
I104
tp4879
g158
s(I121
I122
tp4880
g2898
s(I70
I2457
tp4881
g177
s(I1495
I1496
tp4882
g2202
s(I2269
I1840
tp4883
g1144
s(I2346
I1504
tp4884
g271
s(I1880
I692
tp4885
g2837
s(I499
I693
tp4886
g1669
s(I199
I1055
tp4887
(I199
I1055
Ntp4888
s(I2299
I887
tp4889
g1045
s(I484
I1831
tp4890
g1713
s(I854
I343
tp4891
g659
s(I2066
I121
tp4892
g2248
s(I2122
I106
tp4893
g852
s(I125
I126
tp4894
g907
s(I1035
I1258
tp4895
(I1035
I1258
Ntp4896
s(I718
I205
tp4897
g339
s(I649
I413
tp4898
g2208
s(I443
I497
tp4899
(I443
I497
Ntp4900
s(I2338
I2339
tp4901
g471
s(I373
I261
tp4902
g2985
s(I1042
I169
tp4903
g3510
s(I1994
I1995
tp4904
g1577
s(I620
I1180
tp4905
g4268
s(I2156
I2153
tp4906
g4817
s(I2268
I711
tp4907
g2905
s(I2125
I2124
tp4908
g951
s(I524
I2242
tp4909
(I524
I2242
Ntp4910
s(I1899
I843
tp4911
g1070
s(I490
I1176
tp4912
(I490
I1176
Ntp4913
s(I2484
I2485
tp4914
g2719
s(I1323
I1324
tp4915
g4857
s(I926
I78
tp4916
(I363
I78
I926
tp4917
s(I320
I2317
tp4918
g216
s(I1797
I1798
tp4919
(I1797
I1798
Ntp4920
s(I1305
I1306
tp4921
g2418
s(I893
I894
tp4922
(I892
I895
I893
tp4923
s(I292
I908
tp4924
g2476
s(I843
I2139
tp4925
(I843
I2139
Ntp4926
s(I894
I895
tp4927
g4923
s(I789
I2283
tp4928
g2236
s(I2226
I1130
tp4929
g3687
s(I2467
I2468
tp4930
g403
s(I1224
I954
tp4931
g1817
s(I253
I1499
tp4932
g2281
s(I1541
I1225
tp4933
g689
s(I1198
I1358
tp4934
(I1198
I1358
Ntp4935
s(I189
I2553
tp4936
(I189
I2553
Ntp4937
s(I940
I1313
tp4938
(I940
I1313
Ntp4939
s(I2052
I2053
tp4940
g1412
s(I1802
I2288
tp4941
(I1802
I2288
Ntp4942
s(I466
I465
tp4943
g4299
s(I2153
I2154
tp4944
g288
s(I2124
I1618
tp4945
g951
s(I2485
I1828
tp4946
g2719
s(I2160
I2161
tp4947
g1549
s(I270
I271
tp4948
g428
s(I55
I161
tp4949
(I55
I161
Ntp4950
s(I2169
I1699
tp4951
g1924
s(I243
I244
tp4952
(I243
I244
Ntp4953
s(I1027
I1026
tp4954
g947
s(I1992
I1993
tp4955
g1577
s(I854
I473
tp4956
g4455
s(I640
I1749
tp4957
g541
s(I1651
I1650
tp4958
g2668
s(I471
I476
tp4959
(I471
I477
I476
tp4960
s(I995
I996
tp4961
(I995
I996
Ntp4962
s(I1716
I2360
tp4963
g2690
s(I631
I1698
tp4964
(I631
I1698
Ntp4965
s(I1823
I1824
tp4966
g4326
s(I2172
I866
tp4967
g1836
s(I2116
I1081
tp4968
g931
s(I1930
I1929
tp4969
g1080
s(I1834
I1153
tp4970
g3832
s(I1612
I1613
tp4971
g831
s(I478
I479
tp4972
g1514
s(I1443
I1946
tp4973
(I1443
I1946
Ntp4974
s(I1487
I1488
tp4975
g791
s(I222
I549
tp4976
(I222
I549
Ntp4977
s(I334
I593
tp4978
(I334
I593
Ntp4979
s(I1568
I1567
tp4980
g605
s(I676
I677
tp4981
g4488
s(I1278
I238
tp4982
g2025
s(I1221
I1734
tp4983
g923
s(I2176
I910
tp4984
g465
s(I527
I1952
tp4985
(I527
I1952
Ntp4986
s(I123
I122
tp4987
g1221
s(I1197
I2341
tp4988
g471
s(I2214
I1812
tp4989
g2372
s(I1605
I1632
tp4990
(I1605
I1632
Ntp4991
s(I2106
I2416
tp4992
g632
s(I727
I1228
tp4993
(I727
I1228
Ntp4994
s(I228
I1215
tp4995
(I228
I1215
Ntp4996
s(I1078
I1079
tp4997
g2957
s(I2349
I2348
tp4998
g271
s(I387
I2425
tp4999
(I387
I2425
Ntp5000
s(I826
I827
tp5001
g3337
s(I244
I245
tp5002
(I244
I245
Ntp5003
s(I526
I1426
tp5004
g88
s(I1462
I562
tp5005
g2275
s(I509
I1357
tp5006
g3361
s(I1360
I1359
tp5007
g978
s(I234
I2479
tp5008
(I234
I2479
Ntp5009
s(I78
I738
tp5010
(I78
I738
Ntp5011
s(I411
I1564
tp5012
g1678
s(I66
I1777
tp5013
g445
s(I817
I2566
tp5014
(I817
I2566
Ntp5015
s(I254
I149
tp5016
(I20
I149
I254
tp5017
s(I1430
I2191
tp5018
(I1430
I2191
Ntp5019
s(I1222
I1577
tp5020
g2964
s(I50
I51
tp5021
g1006
s(I1235
I1518
tp5022
(I1235
I1236
I1518
tp5023
s(I1402
I1403
tp5024
g2919
s(I1023
I1022
tp5025
g1988
s(I1619
I1620
tp5026
g750
s(I2556
I839
tp5027
g42
s(I1670
I1671
tp5028
g3364
s(I1970
I1088
tp5029
g4080
s(I852
I1028
tp5030
g947
s(I2528
I2529
tp5031
g1738
s(I363
I926
tp5032
g4917
s(I415
I1705
tp5033
g3871
s(I1997
I1998
tp5034
g1577
s(I1027
I1028
tp5035
g953
s(I1316
I2373
tp5036
g2778
s(I1102
I583
tp5037
g3806
s(I240
I386
tp5038
(I240
I386
Ntp5039
s(I1029
I1400
tp5040
g2743
s(I313
I314
tp5041
g2054
s(I44
I45
tp5042
(I44
I45
Ntp5043
s(I841
I2155
tp5044
g3839
s(I1152
I1834
tp5045
g3832
s(I1518
I1236
tp5046
g5023
s(I2140
I1900
tp5047
g3076
s(I378
I1075
tp5048
g3607
s(I2459
I2458
tp5049
g177
s(I1017
I1587
tp5050
g2023
s(I2090
I2091
tp5051
g48
s(I359
I458
tp5052
g359
s(I525
I1057
tp5053
(I525
I1057
Ntp5054
s(I796
I797
tp5055
(I631
I797
I796
tp5056
s(I1352
I1654
tp5057
(I1352
I1654
Ntp5058
s(I173
I1263
tp5059
(I173
I1192
I1263
tp5060
s(I190
I2263
tp5061
(I190
I2263
Ntp5062
s(I748
I6
tp5063
(I17
I6
I18
tp5064
s(I1614
I1613
tp5065
g44
s(I416
I593
tp5066
(I416
I593
Ntp5067
s(I2291
I153
tp5068
g3060
s(I1746
I1747
tp5069
g1647
s(I54
I1975
tp5070
(I54
I55
I1975
tp5071
s(I27
I258
tp5072
(I27
I258
Ntp5073
s(I2559
I2560
tp5074
g738
s(I136
I379
tp5075
(I136
I379
Ntp5076
s(I997
I1448
tp5077
g670
s(I2182
I2183
tp5078
g638
s(I305
I306
tp5079
g2054
s(I801
I1173
tp5080
g2304
s(I2445
I2444
tp5081
g1274
s(I456
I856
tp5082
(I456
I856
Ntp5083
s(I2
I137
tp5084
(I2
I137
Ntp5085
s(I97
I1712
tp5086
(I97
I1712
Ntp5087
s(I1514
I620
tp5088
g2948
s(I2355
I216
tp5089
g510
s(I791
I1336
tp5090
g4286
s(I2104
I803
tp5091
g3660
s(I271
I1723
tp5092
(I271
I1723
Ntp5093
s(I176
I177
tp5094
g1962
s(I517
I1536
tp5095
(I517
I1536
Ntp5096
s(I2273
I2274
tp5097
g473
s(I2343
I2344
tp5098
g1003
s(I1856
I435
tp5099
g858
s(I994
I1297
tp5100
g3538
s(I2272
I2273
tp5101
g473
s(I320
I609
tp5102
(I320
I609
Ntp5103
s(I1839
I114
tp5104
g441
s(I903
I1231
tp5105
(I903
I1231
Ntp5106
s(I618
I1843
tp5107
(I534
I617
I618
tp5108
s(I1878
I1273
tp5109
g463
s(I1786
I67
tp5110
g483
s(I1123
I1259
tp5111
(I1123
I1259
Ntp5112
s(I2025
I2026
tp5113
g1689
s(I356
I1644
tp5114
(I356
I808
I1644
tp5115
s(I1738
I379
tp5116
g2816
s(I706
I1292
tp5117
(I706
I1292
Ntp5118
s(I2148
I2149
tp5119
g2138
s(I1137
I1136
tp5120
g533
s(I506
I1254
tp5121
g553
s(I2347
I2348
tp5122
g1003
s(I1440
I221
tp5123
g22
s(I1681
I1682
tp5124
g595
s(I955
I535
tp5125
(I140
I535
I955
tp5126
s(I204
I719
tp5127
g2046
s(I246
I874
tp5128
(I246
I874
Ntp5129
s(I883
I454
tp5130
g4630
s(I737
I444
tp5131
g2102
s(I616
I1569
tp5132
(I616
I367
I1569
tp5133
s(I1187
I1188
tp5134
g2342
s(I432
I616
tp5135
(I432
I616
Ntp5136
s(I364
I56
tp5137
g469
s(I2362
I1832
tp5138
g4192
s(I366
I481
tp5139
g1182
s(I3
I233
tp5140
(I3
I233
Ntp5141
s(I152
I343
tp5142
(I152
I343
Ntp5143
s(I194
I1999
tp5144
g253
s(I2063
I1006
tp5145
g516
s(I1060
I148
tp5146
g4419
s(I1871
I1872
tp5147
g90
s(I899
I900
tp5148
(I899
I900
Ntp5149
s(I2109
I2239
tp5150
(I2109
I2239
Ntp5151
s(I1910
I1911
tp5152
g746
s(I256
I255
tp5153
g2877
s(I79
I1826
tp5154
(I79
I1826
Ntp5155
s(I1906
I1907
tp5156
g746
s(I2053
I2054
tp5157
g1412
s(I1388
I2028
tp5158
(I1388
I2028
Ntp5159
s(I1719
I1960
tp5160
g2387
s(I1739
I483
tp5161
g3551
s(I217
I2252
tp5162
(I217
I2252
Ntp5163
s(I111
I1055
tp5164
(I111
I1055
Ntp5165
s(I2496
I2495
tp5166
g833
s(I1172
I626
tp5167
g3154
s(I424
I881
tp5168
(I424
I881
Ntp5169
s(I2271
I2270
tp5170
g1144
s(I97
I1963
tp5171
(I97
I1963
Ntp5172
s(I1567
I1568
tp5173
g1678
s(I2177
I2178
tp5174
g112
s(I425
I426
tp5175
(I425
I426
Ntp5176
s(I961
I1225
tp5177
g2215
s(I236
I2130
tp5178
(I236
I2130
Ntp5179
s(I660
I661
tp5180
(I660
I661
Ntp5181
s(I1471
I1472
tp5182
(I1471
I1472
Ntp5183
s(I60
I1160
tp5184
(I60
I1160
Ntp5185
s(I2521
I2522
tp5186
g691
s(I762
I168
tp5187
g1354
s(I2062
I815
tp5188
g763
s(I433
I537
tp5189
g2204
s(I749
I19
tp5190
g4013
s(I927
I2004
tp5191
g1992
s(I26
I750
tp5192
g2368
s(I519
I2358
tp5193
(I519
I2358
Ntp5194
s(I2128
I1976
tp5195
g1499
s(I347
I348
tp5196
g1098
s(I1004
I1127
tp5197
(I1004
I1127
Ntp5198
s(I594
I545
tp5199
g390
s(I129
I130
tp5200
g1035
s(I2491
I2490
tp5201
g3102
s(I578
I579
tp5202
(I578
I579
Ntp5203
s(I1525
I1680
tp5204
(I1525
I1680
Ntp5205
s(I574
I2079
tp5206
g4832
s(I2533
I2534
tp5207
(I2391
I2534
I2533
tp5208
s(I1958
I1089
tp5209
g2376
s(I2379
I2378
tp5210
g2764
s(I25
I1069
tp5211
(I25
I1069
Ntp5212
s(I1622
I1639
tp5213
g3083
s(I172
I171
tp5214
g676
s(I404
I553
tp5215
g2083
s(I1020
I1209
tp5216
(I1020
I1209
Ntp5217
s(I198
I1498
tp5218
(I198
I1498
Ntp5219
s(I531
I532
tp5220
g134
s(I795
I1698
tp5221
(I795
I1698
Ntp5222
s(I966
I965
tp5223
g173
s(I1489
I1490
tp5224
g791
s(I1177
I1661
tp5225
(I1177
I1661
Ntp5226
s(I1368
I1369
tp5227
g1755
s(I743
I1931
tp5228
g778
s(I942
I915
tp5229
g235
s(I2227
I814
tp5230
g763
s(I669
I2293
tp5231
g1855
s(I211
I2117
tp5232
g961
s(I1209
I1210
tp5233
(I1209
I1210
Ntp5234
s(I716
I1553
tp5235
(I716
I1553
Ntp5236
s(I78
I1109
tp5237
g3663
s(I193
I365
tp5238
g1182
s(I370
I371
tp5239
g2805
s(I320
I680
tp5240
(I320
I680
Ntp5241
s(I2480
I1863
tp5242
g3191
s(I2289
I889
tp5243
g118
s(I1630
I1629
tp5244
g1744
s(I2292
I2291
tp5245
g3060
s(I2161
I2162
tp5246
g1549
s(I882
I687
tp5247
g1472
s(I2058
I816
tp5248
g1726
s(I183
I2246
tp5249
(I183
I2246
Ntp5250
s(I1363
I1553
tp5251
(I1363
I1553
Ntp5252
s(I2146
I2147
tp5253
g2138
s(I196
I1059
tp5254
(I196
I1059
Ntp5255
s(I2403
I283
tp5256
g1462
s(I2386
I1857
tp5257
g2496
s(I844
I2387
tp5258
g638
s(I1905
I1906
tp5259
g746
s(I1420
I37
tp5260
g2554
s(I1415
I321
tp5261
g674
s(I122
I123
tp5262
g2898
s(I140
I955
tp5263
g5126
s(I52
I53
tp5264
g1006
s(I2041
I2040
tp5265
g2048
s(I1961
I1962
tp5266
(I1961
I1962
Ntp5267
s(I996
I1552
tp5268
(I996
I1552
Ntp5269
s(I1880
I25
tp5270
g1799
s(I1551
I11
tp5271
g4364
s(I1511
I720
tp5272
g4072
s(I941
I1213
tp5273
(I941
I1213
Ntp5274
s(I193
I775
tp5275
(I193
I775
Ntp5276
s(I1911
I1910
tp5277
g58
s(I1257
I666
tp5278
g136
s(I1789
I1788
tp5279
g445
s(I356
I1363
tp5280
(I356
I1363
Ntp5281
s(I1276
I1277
tp5282
g2025
s(I1667
I106
tp5283
g1372
s(I341
I855
tp5284
g3444
s(I323
I1246
tp5285
g3139
s(I1335
I791
tp5286
g4286
s(I1715
I2360
tp5287
g4018
s(I36
I474
tp5288
(I36
I474
Ntp5289
s(I1339
I1290
tp5290
g2864
s(I1934
I1935
tp5291
g1365
s(I846
I845
tp5292
g638
s(I255
I771
tp5293
(I255
I771
Ntp5294
s(I1345
I1578
tp5295
g3767
s(I1777
I1776
tp5296
g445
s(I890
I1299
tp5297
(I890
I1299
Ntp5298
s(I2
I1341
tp5299
(I2
I1341
Ntp5300
s(I735
I1853
tp5301
(I735
I1853
Ntp5302
s(I1578
I1579
tp5303
g3767
s(I629
I630
tp5304
g4527
s(I11
I876
tp5305
(I11
I876
Ntp5306
s(I1862
I321
tp5307
g2762
s(I1459
I1979
tp5308
(I1459
I103
I1979
tp5309
s(I72
I2452
tp5310
g3085
s(I2561
I178
tp5311
g1332
s(I1481
I829
tp5312
g1433
s(I2381
I2382
tp5313
g1201
s(I1624
I1625
tp5314
g4876
s(I293
I1440
tp5315
g22
s(I1122
I1123
tp5316
g3528
s(I1804
I732
tp5317
g583
s(I1287
I1288
tp5318
(I1287
I1288
Ntp5319
s(I2457
I2456
tp5320
g177
s(I2288
I2449
tp5321
(I2288
I2449
Ntp5322
s(I481
I1539
tp5323
g1182
s(I1460
I279
tp5324
g1951
s(I1002
I1003
tp5325
g317
s(I294
I397
tp5326
g1520
s(I752
I479
tp5327
g4545
s(I2126
I2524
tp5328
g2490
s(I1243
I2519
tp5329
(I1243
I2519
Ntp5330
s(I1321
I1320
tp5331
g1113
s(I20
I148
tp5332
(I20
I148
Ntp5333
s(I955
I140
tp5334
g1981
s(I1733
I1220
tp5335
g2816
s(I2024
I2025
tp5336
g1689
s(I118
I164
tp5337
(I118
I164
Ntp5338
s(I198
I1581
tp5339
(I198
I1581
Ntp5340
s(I242
I1832
tp5341
g2498
s(I548
I277
tp5342
g1468
s(I1261
I2121
tp5343
(I1261
I2121
Ntp5344
s(I2234
I173
tp5345
g1237
s(I2568
I645
tp5346
(I2251
I645
I2568
tp5347
s(I1967
I1966
tp5348
g3170
s(I2115
I2126
tp5349
(I2115
I2126
Ntp5350
s(I367
I1748
tp5351
g2793
s(I815
I2228
tp5352
g763
s(I1382
I1381
tp5353
g897
s(I322
I323
tp5354
g3139
s(I1979
I103
tp5355
g5309
s(I2060
I2061
tp5356
g561
s(I1483
I2015
tp5357
(I1483
I2015
Ntp5358
s(I1130
I1674
tp5359
(I1130
I1674
Ntp5360
s(I114
I2116
tp5361
g931
s(I221
I1440
tp5362
g2476
s(I1220
I1733
tp5363
g923
s(I1292
I1599
tp5364
(I1292
I1599
Ntp5365
s(I1053
I375
tp5366
g4718
s(I1782
I1781
tp5367
g445
s(I1401
I1473
tp5368
g839
s(I1424
I1423
tp5369
g2554
s(I779
I780
tp5370
g169
s(I2286
I2287
tp5371
g1232
s(I232
I2084
tp5372
g6
s(I989
I1382
tp5373
g897
s(I976
I977
tp5374
g1240
s(I489
I1176
tp5375
(I489
I1176
Ntp5376
s(I2277
I1290
tp5377
(I1650
I1290
I2277
tp5378
s(I1753
I1521
tp5379
g453
s(I336
I1279
tp5380
(I336
I1279
Ntp5381
s(I1268
I2170
tp5382
g361
s(I631
I796
tp5383
g5056
s(I2336
I1198
tp5384
g860
s(I1001
I1192
tp5385
(I1001
I1192
Ntp5386
s(I1875
I2258
tp5387
g527
s(I1591
I1592
tp5388
g3486
s(I284
I2402
tp5389
g399
s(I735
I1037
tp5390
(I735
I1037
Ntp5391
s(I1867
I1868
tp5392
g2563
s(I1113
I2431
tp5393
g3051
s(I1062
I1063
tp5394
g546
s(I2189
I2188
tp5395
g485
s(I845
I846
tp5396
g138
s(I2415
I1603
tp5397
g1425
s(I2009
I2008
tp5398
g536
s(I901
I1874
tp5399
(I901
I1874
Ntp5400
s(I666
I1257
tp5401
g1660
s(I36
I766
tp5402
(I36
I766
Ntp5403
s(I320
I1862
tp5404
g2762
s(I752
I751
tp5405
g1709
s(I830
I831
tp5406
g4514
s(I1467
I1468
tp5407
g435
s(I25
I1880
tp5408
g2837
s(I1885
I1884
tp5409
g144
s(I746
I875
tp5410
(I746
I875
Ntp5411
s(I1388
I2027
tp5412
(I1388
I2027
Ntp5413
s(I1334
I790
tp5414
(I789
I790
I1334
tp5415
s(I378
I1463
tp5416
g3323
s(I611
I1937
tp5417
g2975
s(I1854
I1853
tp5418
g4212
s(I1569
I367
tp5419
g5133
s(I26
I741
tp5420
(I26
I741
Ntp5421
s(I785
I786
tp5422
(I784
I786
I785
tp5423
s(I542
I543
tp5424
g84
s(I655
I2247
tp5425
(I655
I2247
Ntp5426
s(I1898
I1899
tp5427
g1070
s(I1617
I1616
tp5428
g44
s(I1631
I1632
tp5429
(I1631
I1632
Ntp5430
s(I1894
I1893
tp5431
g144
s(I1678
I1936
tp5432
g3632
s(I720
I721
tp5433
g416
s(I182
I183
tp5434
(I182
I183
Ntp5435
s(I1953
I1590
tp5436
(I1592
I1590
I1953
tp5437
s(I405
I608
tp5438
g996
s(I2014
I2211
tp5439
g1286
s(I2354
I216
tp5440
g3051
s(I1391
I2542
tp5441
(I1391
I2542
Ntp5442
s(I1314
I2372
tp5443
g4758
s(I1433
I1434
tp5444
g1682
s(I534
I1833
tp5445
(I534
I1833
Ntp5446
s(I1850
I1849
tp5447
g363
s(I558
I1077
tp5448
g1782
s(I2402
I284
tp5449
g1372
s(I524
I2563
tp5450
g2740
s(I107
I1840
tp5451
(I107
I1840
Ntp5452
s(I465
I466
tp5453
g2097
s(I239
I386
tp5454
(I239
I386
Ntp5455
s(I436
I674
tp5456
g793
s(I2469
I2470
tp5457
g403
s(I321
I1415
tp5458
g2762
s(I2194
I2193
tp5459
g883
s(I2226
I1978
tp5460
g3594
s(I545
I594
tp5461
g84
s(I1298
I573
tp5462
g1695
s(I1022
I1023
tp5463
g1078
s(I1026
I1025
tp5464
g947
s(I384
I1764
tp5465
(I384
I1764
Ntp5466
s(I2406
I2407
tp5467
g3422
s(I913
I607
tp5468
g1016
s(I2042
I2041
tp5469
g2048
s(I1314
I2471
tp5470
g2968
s(I1904
I1905
tp5471
g746
s(I2154
I2153
tp5472
g3839
s(I2351
I2352
tp5473
g1003
s(I440
I624
tp5474
g1165
s(I514
I2137
tp5475
(I514
I2136
I2137
tp5476
s(I259
I382
tp5477
(I259
I382
Ntp5478
s(I2119
I2398
tp5479
(I2119
I2398
Ntp5480
s(I635
I1163
tp5481
g2106
s(I1476
I1475
tp5482
g992
s(I870
I1750
tp5483
(I870
I1750
Ntp5484
s(I2183
I2184
tp5485
g638
s(I1163
I635
tp5486
g2840
s(I795
I2016
tp5487
g1466
s(I944
I1768
tp5488
(I944
I1768
Ntp5489
s(I1526
I1527
tp5490
g3676
s(I245
I1051
tp5491
(I245
I1051
Ntp5492
s(I1108
I1130
tp5493
(I1108
I1130
Ntp5494
s(I196
I850
tp5495
(I196
I850
Ntp5496
s(I1810
I2213
tp5497
(I1810
I2212
I2213
tp5498
s(I161
I162
tp5499
(I161
I162
Ntp5500
s(I120
I1199
tp5501
(I120
I1199
Ntp5502
s(I345
I1074
tp5503
(I345
I1074
Ntp5504
s(I2305
I2443
tp5505
(I2305
I2443
Ntp5506
s(I2135
I2136
tp5507
(I2135
I2136
Ntp5508
s(I337
I338
tp5509
(I276
I338
I337
tp5510
s(I513
I514
tp5511
g1501
s(I1271
I2099
tp5512
g122
s(I1397
I1396
tp5513
g942
s(I80
I1439
tp5514
g3966
s(I116
I117
tp5515
g863
s(I2293
I669
tp5516
g793
s(I1387
I2012
tp5517
g3611
s(I1916
I1917
tp5518
g746
s(I268
I536
tp5519
g3296
s(I857
I858
tp5520
g1235
s(I2304
I198
tp5521
g1684
s(I73
I203
tp5522
g339
s(I398
I736
tp5523
g4178
s(I1892
I1891
tp5524
g144
s(I19
I749
tp5525
g3433
s(I4
I34
tp5526
(I4
I34
Ntp5527
s(I964
I965
tp5528
g697
s(I867
I868
tp5529
g1836
s(I335
I79
tp5530
g2163
s(I11
I1222
tp5531
(I11
I1222
Ntp5532
s(I965
I964
tp5533
g173
s(I1828
I2485
tp5534
g441
s(I879
I898
tp5535
(I879
I898
Ntp5536
s(I1893
I1894
tp5537
g10
s(I73
I1983
tp5538
(I73
I1983
Ntp5539
s(I1054
I200
tp5540
g203
s(I1512
I159
tp5541
g3621
s(I1681
I1680
tp5542
g3387
s(I9
I10
tp5543
g3897
s(I1598
I1599
tp5544
(I1598
I1599
Ntp5545
s(I1682
I1681
tp5546
g3387
s(I2516
I2515
tp5547
g4552
s(I1466
I135
tp5548
g842
s(I806
I876
tp5549
(I806
I876
Ntp5550
s(I2113
I2112
tp5551
g284
s(I2059
I2060
tp5552
g561
s(I1734
I1221
tp5553
g2816
s(I740
I61
tp5554
g124
s(I404
I1114
tp5555
g1762
s(I2034
I2035
tp5556
g529
s(I2502
I2503
tp5557
g422
s(I282
I283
tp5558
g1617
s(I11
I875
tp5559
(I11
I875
Ntp5560
s(I1301
I1302
tp5561
g2418
s(I2021
I1186
tp5562
g189
s(I1719
I2518
tp5563
(I1719
I2518
Ntp5564
s(I620
I1676
tp5565
g3172
s(I699
I1132
tp5566
g1374
s(I55
I1975
tp5567
g1108
s(I1991
I1992
tp5568
g1577
s(I441
I442
tp5569
(I6
I442
I441
tp5570
s(I124
I349
tp5571
(I124
I349
Ntp5572
s(I2005
I2006
tp5573
g2257
s(I205
I1543
tp5574
(I205
I1543
Ntp5575
s(I156
I947
tp5576
(I156
I947
Ntp5577
s(I1904
I1903
tp5578
g58
s(I436
I437
tp5579
(I436
I437
Ntp5580
s(I1687
I2412
tp5581
(I1687
I2412
Ntp5582
s(I156
I1649
tp5583
(I156
I1649
Ntp5584
s(I1601
I1602
tp5585
(I1379
I1603
I1601
tp5586
s(I507
I508
tp5587
(I507
I508
Ntp5588
s(I516
I1131
tp5589
(I516
I1131
Ntp5590
s(I1233
I1519
tp5591
g662
s(I2161
I2160
tp5592
g856
s(I24
I381
tp5593
(I24
I381
Ntp5594
s(I759
I895
tp5595
(I759
I895
Ntp5596
s(I1858
I2386
tp5597
g2496
s(I1405
I1406
tp5598
g1106
s(I2103
I2102
tp5599
g2245
s(I1592
I2245
tp5600
(I1592
I1590
I2245
tp5601
s(I1979
I1459
tp5602
g3028
s(I1005
I1168
tp5603
g1033
s(I947
I1272
tp5604
g1845
s(I2391
I2533
tp5605
g5208
s(I1640
I413
tp5606
g1801
s(I382
I1520
tp5607
(I382
I1520
Ntp5608
s(I1897
I100
tp5609
g1133
s(I1400
I1771
tp5610
g1997
s(I139
I1228
tp5611
(I139
I1228
Ntp5612
s(I2010
I2009
tp5613
g536
s(I491
I875
tp5614
(I491
I875
Ntp5615
s(I2208
I2209
tp5616
g634
s(I1914
I1915
tp5617
g746
s(I1920
I1458
tp5618
g746
s(I1068
I1069
tp5619
g2060
s(I2219
I2220
tp5620
g551
s(I568
I592
tp5621
g2560
s(I654
I769
tp5622
g3134
s(I444
I579
tp5623
(I444
I579
Ntp5624
s(I92
I550
tp5625
(I92
I550
Ntp5626
s(I2562
I192
tp5627
g678
s(I1561
I507
tp5628
g2892
s(I97
I1713
tp5629
(I97
I1713
Ntp5630
s(I1457
I1917
tp5631
g58
s(I234
I651
tp5632
(I234
I651
Ntp5633
s(I221
I1658
tp5634
(I221
I1657
I1658
tp5635
s(I1699
I1700
tp5636
g963
s(I940
I2069
tp5637
g3978
s(I372
I1047
tp5638
(I372
I1047
Ntp5639
s(I1720
I1960
tp5640
g1001
s(I1317
I1318
tp5641
(I1317
I1318
Ntp5642
s(I37
I1420
tp5643
g887
s(I816
I2059
tp5644
g561
s(I1626
I1666
tp5645
(I1626
I1666
Ntp5646
s(I990
I991
tp5647
g4195
s(I1592
I1953
tp5648
g5437
s(I929
I1835
tp5649
(I929
I1835
Ntp5650
s(I491
I492
tp5651
(I491
I492
Ntp5652
s(I10
I1807
tp5653
g625
s(I232
I1260
tp5654
(I232
I1260
Ntp5655
s(I2413
I2414
tp5656
(I2413
I2414
Ntp5657
s(I1084
I953
tp5658
g931
s(I14
I1177
tp5659
(I14
I1177
Ntp5660
s(I1348
I744
tp5661
g1845
s(I997
I2546
tp5662
(I997
I2546
Ntp5663
s(I1337
I1338
tp5664
(I1337
I1338
Ntp5665
s(I609
I680
tp5666
(I609
I680
Ntp5667
s(I1072
I1071
tp5668
g1324
s(I390
I1724
tp5669
g506
s(I1276
I237
tp5670
g1969
s(I871
I1750
tp5671
(I871
I1750
Ntp5672
s(I835
I836
tp5673
g2486
s(I23
I381
tp5674
g3374
s(I2166
I1451
tp5675
g3459
s(I1302
I1303
tp5676
g2418
s(I1895
I225
tp5677
g144
s(I1093
I1094
tp5678
g2194
s(I201
I2230
tp5679
g384
s(I1828
I1838
tp5680
g3128
s(I2046
I2045
tp5681
g74
s(I1501
I2307
tp5682
(I1501
I2307
Ntp5683
s(I168
I2096
tp5684
g3985
s(I1985
I1586
tp5685
g2862
s(I258
I2243
tp5686
(I258
I2243
Ntp5687
s(I681
I1361
tp5688
(I681
I1361
Ntp5689
s(I516
I517
tp5690
(I516
I517
Ntp5691
s(I2331
I1666
tp5692
g2729
s(I460
I1655
tp5693
g1815
s(I1253
I709
tp5694
g3668
s(I725
I766
tp5695
(I725
I766
Ntp5696
s(I1781
I1780
tp5697
g445
s(I717
I1538
tp5698
(I717
I1538
Ntp5699
s(I1636
I2516
tp5700
g4552
s(I1722
I2081
tp5701
g3939
s(I37
I81
tp5702
(I37
I81
Ntp5703
s(I54
I2224
tp5704
(I54
I2224
Ntp5705
s(I649
I412
tp5706
g1247
s(I843
I2387
tp5707
g138
s(I1315
I2372
tp5708
g4144
s(I2561
I179
tp5709
g426
s(I486
I728
tp5710
g1713
s(I1501
I2266
tp5711
(I1501
I2266
Ntp5712
s(I792
I793
tp5713
g4286
s(I2314
I2313
tp5714
g1444
s(I784
I785
tp5715
g5423
s(I689
I690
tp5716
g447
s(I1915
I1914
tp5717
g58
s(I2230
I2551
tp5718
g384
s(I233
I516
tp5719
(I233
I516
Ntp5720
s(I767
I1444
tp5721
g2058
s(I938
I939
tp5722
g64
s(I1524
I1525
tp5723
g1488
s(I804
I805
tp5724
g269
s(I296
I446
tp5725
g4159
s(I1662
I1937
tp5726
g3700
s(I1470
I1471
tp5727
g435
s(I1791
I1790
tp5728
g445
s(I1020
I1350
tp5729
(I1020
I1350
Ntp5730
s(I655
I1242
tp5731
(I655
I1242
Ntp5732
s(I2326
I1620
tp5733
g4592
s(I789
I1334
tp5734
g5415
s(I2342
I2343
tp5735
g1003
s(I2170
I1268
tp5736
(I1269
I1268
I2170
tp5737
s(I17
I18
tp5738
g5064
s(I2147
I2148
tp5739
g2138
s(I2150
I2151
tp5740
g2138
s(I569
I570
tp5741
g1131
s(I1996
I1997
tp5742
g1577
s(I384
I1968
tp5743
(I384
I1968
Ntp5744
s(I1412
I1411
tp5745
g2754
s(I59
I165
tp5746
(I59
I165
Ntp5747
s(I1602
I1603
tp5748
g5586
s(I253
I602
tp5749
g4283
s(I2551
I109
tp5750
g384
s(I963
I1226
tp5751
g4720
s(I1544
I2127
tp5752
(I1544
I2127
Ntp5753
s(I1116
I440
tp5754
g1165
s(I2316
I2223
tp5755
g2090
s(I586
I587
tp5756
g1591
s(I2344
I2343
tp5757
g271
s(I476
I477
tp5758
g4960
s(I1730
I840
tp5759
g42
s(I2568
I2251
tp5760
g2200
s(I575
I400
tp5761
g1867
s(I624
I2114
tp5762
g4470
s(I1353
I1034
tp5763
g1421
s(I600
I494
tp5764
g2673
s(I1890
I1891
tp5765
g10
s(I1136
I1146
tp5766
g533
s(I1888
I1887
tp5767
g144
s(I1972
I1973
tp5768
g1847
s(I778
I779
tp5769
g169
s(I534
I618
tp5770
g5108
s(I825
I2057
tp5771
(I825
I2057
Ntp5772
s(I1510
I1509
tp5773
g2680
s(I2395
I1872
tp5774
g4615
s(I1770
I1771
tp5775
g4650
s(I841
I1544
tp5776
(I841
I1544
Ntp5777
s(I88
I775
tp5778
(I88
I775
Ntp5779
s(I2131
I2132
tp5780
(I2131
I2132
Ntp5781
s(I1929
I1507
tp5782
g1080
s(I665
I666
tp5783
g1660
s(I358
I619
tp5784
(I358
I619
Ntp5785
s(I461
I956
tp5786
(I460
I956
I461
tp5787
s(I2066
I2065
tp5788
g3205
s(I546
I825
tp5789
(I546
I825
Ntp5790
s(I738
I927
tp5791
(I738
I927
Ntp5792
s(I1461
I134
tp5793
g895
s(I55
I1760
tp5794
g2883
s(I1374
I946
tp5795
g4491
s(I472
I21
tp5796
g1764
s(I2186
I845
tp5797
g138
s(I2179
I2178
tp5798
g1464
s(I1269
I2170
tp5799
g5737
s(I2298
I887
tp5800
g1624
s(I38
I502
tp5801
(I38
I502
Ntp5802
s(I2341
I1197
tp5803
g860
s(I1052
I1053
tp5804
g4718
s(I947
I1349
tp5805
g4491
s(I753
I194
tp5806
g644
s(I243
I559
tp5807
(I243
I559
Ntp5808
s(I130
I131
tp5809
(I130
I131
Ntp5810
s(I277
I549
tp5811
g1468
s(I2452
I2451
tp5812
g3085
s(I1855
I1856
tp5813
g858
s(I678
I679
tp5814
g4488
s(I1423
I1422
tp5815
g2554
s(I1725
I2329
tp5816
(I1725
I2329
Ntp5817
s(I1203
I1204
tp5818
g726
s(I2209
I2210
tp5819
g634
s(I806
I890
tp5820
(I806
I890
Ntp5821
s(I454
I455
tp5822
(I454
I455
Ntp5823
s(I1422
I1423
tp5824
g887
s(I1983
I2158
tp5825
(I1983
I2158
Ntp5826
s(I1485
I1486
tp5827
g791
s(I2230
I201
tp5828
g203
s(I2492
I2491
tp5829
g3102
s(I56
I364
tp5830
g30
s(I2253
I1598
tp5831
g1621
s(I1927
I1195
tp5832
g1080
s(I110
I2370
tp5833
(I110
I199
I2370
tp5834
s(I494
I697
tp5835
g2673
s(I1755
I1754
tp5836
g1680
s(I25
I467
tp5837
g4184
s(I482
I2195
tp5838
g883
s(I1362
I1363
tp5839
(I1362
I1363
Ntp5840
s(I2437
I2438
tp5841
g1024
s(I1398
I1399
tp5842
g771
s(I1562
I1864
tp5843
(I1562
I1864
Ntp5844
s(I1475
I1474
tp5845
g992
s(I828
I1685
tp5846
g3259
s(I2355
I1711
tp5847
g1068
s(I123
I2310
tp5848
g2898
s(I2337
I2336
tp5849
g860
s(I2111
I2112
tp5850
g14
s(I1568
I252
tp5851
g1678
s(I385
I386
tp5852
g72
s(I1213
I1718
tp5853
(I1213
I1718
Ntp5854
s(I1571
I194
tp5855
g1869
s(I1843
I617
tp5856
g5108
s(I102
I1447
tp5857
(I102
I1447
Ntp5858
s(I2196
I2197
tp5859
g329
s(I831
I832
tp5860
g4514
s(I170
I1262
tp5861
g676
s(I2163
I2162
tp5862
g856
s(I566
I591
tp5863
(I566
I591
Ntp5864
s(I984
I1642
tp5865
g2642
s(I312
I313
tp5866
g2054
s(I1573
I1574
tp5867
g1290
s(I1660
I367
tp5868
g2013
s(I1587
I1017
tp5869
g929
s(I1659
I2558
tp5870
(I1659
I2558
Ntp5871
s(I104
I1756
tp5872
g683
s(I173
I1151
tp5873
g2328
s(I231
I232
tp5874
(I231
I232
Ntp5875
s(I486
I1230
tp5876
g2379
s(I2049
I2050
tp5877
g333
s(I712
I713
tp5878
g2905
s(I966
I967
tp5879
g697
s(I664
I445
tp5880
g136
s(I1832
I242
tp5881
g4192
s(I61
I1160
tp5882
g124
s(I612
I1266
tp5883
g2978
s(I2335
I1198
tp5884
g1999
s(I1909
I1908
tp5885
g58
s(I2104
I804
tp5886
g24
s(I768
I1521
tp5887
g4155
s(I217
I288
tp5888
(I217
I288
Ntp5889
s(I2366
I2367
tp5890
g222
s(I2274
I2273
tp5891
g1144
s(I2472
I1703
tp5892
g1214
s(I813
I2227
tp5893
g763
s(I1501
I1865
tp5894
g2002
s(I2490
I2491
tp5895
g730
s(I1216
I2120
tp5896
g1701
s(I407
I408
tp5897
g1964
s(I635
I1154
tp5898
(I635
I1154
Ntp5899
s(I2502
I2501
tp5900
g833
s(I1798
I1799
tp5901
(I1798
I1799
Ntp5902
s(I304
I305
tp5903
g2054
s(I1227
I1745
tp5904
g3185
s(I2210
I2209
tp5905
g1286
s(I517
I1131
tp5906
(I517
I1131
Ntp5907
s(I917
I918
tp5908
g2359
s(I2294
I671
tp5909
g793
s(I685
I1039
tp5910
(I685
I1039
Ntp5911
s(I2277
I1650
tp5912
g3893
s(I2366
I1437
tp5913
g3083
s(I1366
I740
tp5914
g124
s(I1048
I1581
tp5915
g2619
s(I2069
I2070
tp5916
g3978
s(I1540
I1624
tp5917
g4876
s(I353
I354
tp5918
(I353
I354
Ntp5919
s(I2162
I2163
tp5920
g1549
s(I455
I584
tp5921
(I455
I584
Ntp5922
s(I1860
I171
tp5923
g1237
s(I2201
I2525
tp5924
g1738
s(I1846
I1847
tp5925
g1497
s(I172
I1902
tp5926
g1237
s(I842
I843
tp5927
(I842
I843
Ntp5928
s(I1725
I1726
tp5929
(I1725
I1726
Ntp5930
s(I1804
I377
tp5931
g625
s(I1379
I1601
tp5932
g5586
s(I1081
I1082
tp5933
g931
s(I488
I874
tp5934
(I488
I874
Ntp5935
s(I1052
I245
tp5936
g2294
s(I238
I2305
tp5937
(I238
I2305
Ntp5938
s(I430
I1333
tp5939
(I430
I1333
Ntp5940
s(I625
I1078
tp5941
g2957
s(I2378
I2379
tp5942
g54
s(I1407
I1408
tp5943
(I1407
I1408
Ntp5944
s(I678
I677
tp5945
g216
s(I183
I2260
tp5946
(I183
I2260
Ntp5947
s(I2531
I2532
tp5948
(I2531
I2532
Ntp5949
s(I1530
I1531
tp5950
g3676
s(I2356
I2357
tp5951
g1068
s(I181
I1842
tp5952
g3744
s(I2503
I2502
tp5953
g833
s(I896
I2328
tp5954
(I896
I2328
Ntp5955
s(I56
I163
tp5956
g469
s(I1020
I1411
tp5957
(I1020
I1411
Ntp5958
s(I837
I1974
tp5959
g352
s(I225
I1895
tp5960
g10
s(I923
I924
tp5961
g1899
s(I672
I2294
tp5962
g793
s(I583
I1102
tp5963
g3278
s(I87
I88
tp5964
(I87
I88
Ntp5965
s(I862
I1391
tp5966
g1235
s(I18
I748
tp5967
g5064
s(I2213
I2212
tp5968
g5498
s(I1309
I1310
tp5969
g1207
s(I1381
I1380
tp5970
g897
s(I2529
I2126
tp5971
g1738
s(I762
I169
tp5972
g2569
s(I20
I254
tp5973
g5017
s(I156
I949
tp5974
(I156
I949
Ntp5975
s(I415
I2235
tp5976
(I415
I2235
Ntp5977
s(I2261
I2244
tp5978
g207
s(I2275
I2276
tp5979
g473
s(I14
I15
tp5980
(I14
I15
Ntp5981
s(I86
I613
tp5982
(I86
I613
Ntp5983
s(I1896
I1895
tp5984
g144
s(I1876
I2258
tp5985
g4297
s(I2349
I1503
tp5986
g1003
s(I115
I116
tp5987
(I115
I116
Ntp5988
s(I1509
I93
tp5989
g2680
s(I1274
I1275
tp5990
g2400
s(I2048
I2049
tp5991
g333
s(I2435
I2436
tp5992
g1024
s(I992
I993
tp5993
g4195
s(I178
I739
tp5994
(I178
I739
Ntp5995
s(I48
I49
tp5996
g2479
s(I1688
I263
tp5997
g1060
s(I413
I1534
tp5998
(I413
I1534
Ntp5999
s(I447
I1120
tp6000
(I447
I1120
Ntp6001
s(I6
I441
tp6002
g5570
s(I763
I1425
tp6003
g1058
s(I1111
I1722
tp6004
g3939
s(I1019
I1414
tp6005
(I1019
I1414
Ntp6006
s(I1744
I1144
tp6007
g2079
s(I2055
I2056
tp6008
g1412
s(I1650
I2277
tp6009
g5378
s(I184
I223
tp6010
(I184
I223
Ntp6011
s(I544
I545
tp6012
g84
s(I479
I1724
tp6013
g695
s(I333
I503
tp6014
(I333
I503
Ntp6015
s(I177
I2057
tp6016
(I177
I2057
Ntp6017
s(I709
I710
tp6018
g2905
s(I2492
I2473
tp6019
g730
s(I155
I1189
tp6020
g3477
s(I1922
I1921
tp6021
g228
s(I2325
I547
tp6022
g1574
s(I2312
I2313
tp6023
g3250
s(I2453
I72
tp6024
g3085
s(I1437
I2366
tp6025
g222
s(I673
I672
tp6026
g793
s(I33
I1952
tp6027
(I33
I1952
Ntp6028
s(I707
I2510
tp6029
(I707
I2510
Ntp6030
s(I1169
I2063
tp6031
g516
s(I124
I949
tp6032
(I124
I949
Ntp6033
s(I1547
I1546
tp6034
g3104
s(I645
I1687
tp6035
(I645
I1687
Ntp6036
s(I76
I174
tp6037
g1962
s(I2058
I817
tp6038
g163
s(I2299
I2087
tp6039
(I887
I2087
I2299
tp6040
s(I408
I1009
tp6041
(I408
I1009
Ntp6042
s(I2574
I228
tp6043
g3822
s(I1079
I1080
tp6044
g2957
s(I1439
I80
tp6045
g2011
s(I1706
I1707
tp6046
g431
s(I1091
I2427
tp6047
g867
s(I989
I990
tp6048
(I989
I990
Ntp6049
s(I2020
I2019
tp6050
g2872
s(I276
I337
tp6051
g5510
s(I1895
I1896
tp6052
g10
s(I1009
I1010
tp6053
(I1009
I1010
Ntp6054
s(I1925
I1924
tp6055
g228
s(I1466
I1454
tp6056
g1904
s(I196
I1833
tp6057
(I196
I1833
Ntp6058
s(I519
I2506
tp6059
g1924
s(I2118
I2493
tp6060
(I2118
I2493
Ntp6061
s(I32
I33
tp6062
(I32
I33
Ntp6063
s(I238
I793
tp6064
(I238
I793
Ntp6065
s(I2325
I2324
tp6066
g1227
s(I1772
I915
tp6067
g672
s(I1097
I1098
tp6068
g2194
s(I2231
I613
tp6069
g253
s(I1849
I1850
tp6070
g1497
s(I1703
I2472
tp6071
g865
s(I887
I2299
tp6072
g6040
s(I2428
I2554
tp6073
g409
s(I846
I2185
tp6074
g138
s(I275
I459
tp6075
g359
s(I1201
I1252
tp6076
(I1201
I1252
Ntp6077
s(I265
I266
tp6078
g2453
s(I1450
I2166
tp6079
g3459
s(I1294
I351
tp6080
g2558
s(I212
I2379
tp6081
g2764
s(I1976
I871
tp6082
g1499
s(I1301
I2139
tp6083
(I1301
I2139
Ntp6084
s(I2321
I1870
tp6085
g90
s(I2137
I2136
tp6086
g5476
s(I730
I1238
tp6087
(I730
I559
I1238
tp6088
s(I1529
I1530
tp6089
g3676
s(I1236
I1518
tp6090
g2533
s(I1304
I1305
tp6091
g2418
s(I2251
I2568
tp6092
g5347
s(I1644
I356
tp6093
g3002
s(I5
I698
tp6094
(I5
I698
Ntp6095
s(I758
I744
tp6096
g94
s(I1324
I1325
tp6097
g4857
s(I1614
I1615
tp6098
g831
s(I1211
I1212
tp6099
g1334
s(I222
I329
tp6100
(I222
I329
Ntp6101
s(I58
I888
tp6102
(I58
I888
Ntp6103
s(I1819
I1818
tp6104
g2610
s(I295
I207
tp6105
g3175
s(I321
I1862
tp6106
g674
s(I460
I461
tp6107
g5787
s(I317
I318
tp6108
g2054
s(I674
I436
tp6109
g1855
s(I220
I221
tp6110
(I220
I221
Ntp6111
s(I505
I1255
tp6112
(I505
I1255
Ntp6113
s(I2245
I1590
tp6114
g5601
s(I2125
I156
tp6115
g46
s(I610
I611
tp6116
(I610
I611
Ntp6117
s(I1344
I1345
tp6118
g3767
s(I96
I95
tp6119
g3637
s(I995
I1552
tp6120
(I995
I1552
Ntp6121
s(I2154
I2155
tp6122
g288
s(I2529
I2528
tp6123
g2191
s(I1841
I2271
tp6124
g1144
s(I1269
I2290
tp6125
g3925
s(I2497
I2496
tp6126
g833
s(I395
I944
tp6127
(I395
I944
Ntp6128
s(I1779
I1778
tp6129
g445
s(I416
I975
tp6130
(I416
I975
Ntp6131
s(I946
I1375
tp6132
(I946
I1375
Ntp6133
s(I680
I1900
tp6134
(I680
I1900
Ntp6135
s(I1981
I1630
tp6136
g1744
s(I876
I1577
tp6137
g3999
s(I1329
I1056
tp6138
g1671
s(I496
I872
tp6139
g1125
s(I1238
I559
tp6140
g6088
s(I793
I1337
tp6141
(I793
I1337
Ntp6142
s(I137
I1341
tp6143
(I137
I1341
Ntp6144
s(I121
I2369
tp6145
g949
s(I475
I1663
tp6146
g728
s(I681
I1011
tp6147
(I681
I1011
Ntp6148
s(I1675
I130
tp6149
g2760
s(I2218
I2217
tp6150
g1365
s(I1644
I808
tp6151
g5115
s(I2370
I199
tp6152
g5834
s(I1186
I2022
tp6153
g3334
s(I677
I678
tp6154
g4488
s(I540
I1705
tp6155
g2842
s(I1549
I1548
tp6156
g3104
s(I1860
I1190
tp6157
g676
s(I110
I1592
tp6158
(I110
I1592
Ntp6159
s(I366
I365
tp6160
g597
s(I2156
I1989
tp6161
g2586
s(I1822
I1841
tp6162
g1144
s(I836
I1974
tp6163
g2486
s(I2316
I1104
tp6164
g3571
s(I583
I700
tp6165
g3806
s(I971
I1124
tp6166
(I971
I1124
Ntp6167
s(I1117
I1103
tp6168
g705
s(I307
I308
tp6169
g2054
s(I2402
I1668
tp6170
g399
s(I1658
I1657
tp6171
g5635
s(I1320
I1321
tp6172
g2435
s(I368
I369
tp6173
g2805
s(I776
I777
tp6174
g1806
s(I55
I1040
tp6175
(I55
I1040
Ntp6176
s(I2262
I813
tp6177
g207
s(I1537
I1015
tp6178
g1849
s(I1629
I1982
tp6179
g1744
s(I154
I2003
tp6180
(I154
I2003
Ntp6181
s(I245
I1948
tp6182
g2316
s(I1393
I788
tp6183
g1662
s(I753
I479
tp6184
g1699
s(I1018
I1464
tp6185
(I1018
I1464
Ntp6186
s(I1566
I1500
tp6187
g1678
s(I58
I414
tp6188
(I58
I414
Ntp6189
s(I83
I599
tp6190
(I83
I599
Ntp6191
s(I1226
I962
tp6192
g4720
s(I1031
I1032
tp6193
(I1031
I1032
Ntp6194
s(I2275
I2274
tp6195
g1144
s(I608
I405
tp6196
g1788
s(I2327
I241
tp6197
g171
s(I645
I646
tp6198
(I645
I646
Ntp6199
s(I1506
I2344
tp6200
g271
s(I2199
I2198
tp6201
g883
s(I1829
I1234
tp6202
g662
s(I377
I487
tp6203
g1150
s(I360
I361
tp6204
(I360
I361
Ntp6205
s(I768
I873
tp6206
(I768
I873
Ntp6207
s(I1263
I1192
tp6208
g5060
s(I2368
I2367
tp6209
g3083
s(I82
I502
tp6210
(I82
I502
Ntp6211
s(I1343
I1344
tp6212
g3767
s(I1297
I1552
tp6213
(I1297
I1552
Ntp6214
s(I1431
I1432
tp6215
g4518
s(I1404
I1016
tp6216
g780
s(I1025
I1026
tp6217
g953
s(I2200
I2201
tp6218
(I2200
I2201
Ntp6219
s(I816
I2229
tp6220
(I816
I2229
Ntp6221
s(I2248
I1534
tp6222
g4243
s(I1396
I1397
tp6223
g3234
s(I1916
I1456
tp6224
g58
s(I1291
I1340
tp6225
g1707
s(I97
I849
tp6226
(I97
I849
Ntp6227
s(I287
I1596
tp6228
(I287
I1596
Ntp6229
s(I1070
I1659
tp6230
g2002
s(I1924
I1925
tp6231
g299
s(I2545
I55
tp6232
g1474
s(I1559
I1371
tp6233
g2713
s(I2403
I2404
tp6234
g3943
s(I1917
I1457
tp6235
g746
s(I1733
I1732
tp6236
g923
s(I1257
I667
tp6237
g1660
s(I1260
I1261
tp6238
(I1260
I1261
Ntp6239
s(I216
I2354
tp6240
g251
s(I778
I1770
tp6241
g4650
s(I357
I358
tp6242
(I357
I358
Ntp6243
s(I1976
I2128
tp6244
g2363
s(I2313
I2314
tp6245
g3250
s(I2278
I1625
tp6246
g1072
s(I662
I2461
tp6247
g175
s(I1082
I1081
tp6248
g369
s(I214
I215
tp6249
g1966
s(I2159
I2222
tp6250
g1018
s(I1900
I2140
tp6251
g485
s(I140
I969
tp6252
(I140
I969
Ntp6253
s(I345
I744
tp6254
(I345
I744
Ntp6255
s(I708
I2123
tp6256
(I708
I2123
Ntp6257
s(I602
I2002
tp6258
g4283
s(I2112
I2113
tp6259
g14
s(I364
I162
tp6260
g30
s(I892
I893
tp6261
g4923
s(I1818
I1819
tp6262
g579
s(I95
I94
tp6263
g3637
s(I1549
I1550
tp6264
g636
s(I217
I2239
tp6265
(I217
I2239
Ntp6266
s(I1975
I55
tp6267
g5071
s(I598
I1632
tp6268
(I598
I1632
Ntp6269
s(I1464
I1710
tp6270
(I1464
I1710
Ntp6271
s(I197
I724
tp6272
(I197
I724
Ntp6273
s(I993
I2131
tp6274
(I993
I2131
Ntp6275
s(I1049
I622
tp6276
g1530
s(I276
I360
tp6277
(I276
I360
Ntp6278
s(I1922
I1923
tp6279
g299
s(I1318
I2126
tp6280
(I1318
I2126
Ntp6281
s(I1725
I2424
tp6282
(I1725
I2424
Ntp6283
s(I372
I1520
tp6284
(I372
I1520
Ntp6285
s.